ccopy_reg
_reconstructor
p0
(cnlang.processor.chunker
Chunker
p1
c__builtin__
object
p2
Ntp3
Rp4
(dp5
S'_Chunker__eos_phrase'
p6
(lp7
S'EOS'
p8
aS'O'
p9
aI0
asS'_Chunker__iob_conn'
p10
(inlang.base.data.conn_table
ConnectivityTable
p11
(dp12
S'_ConnectivityTable__table'
p13
(dp14
S'I-NP'
p15
(dp16
S'I-NP'
p17
I1063
sg9
I2406
ssS'B-NP'
p18
(dp19
S'I-NP'
p20
I1512
sg9
I3148
ssg9
(dp21
S'B-NP'
p22
I2671
sg9
I1715
sssbsS'_Chunker__phrases'
p23
g0
(cnlang.base.data.phrase
Phrase
p24
g2
Ntp25
Rp26
(dp27
S'_Phrase__phrases'
p28
g0
(cnlang.base.data.trie
Trie
p29
g2
Ntp30
Rp31
(dp32
S'root'
p33
(dp34
S'A'
p35
(dp36
S'U'
p37
(dp38
S'V'
p39
(dp40
S'-'
p41
(dp42
S'S'
p43
(dp44
S'P'
p45
(dp46
S'/'
p47
(dp48
S'T'
p49
(dp50
g35
(dp51
S'I'
p52
(dp53
g41
(dp54
S'Y'
p55
(dp56
g47
(dp57
g49
(dp58
g35
(dp59
S'C'
p60
(dp61
g9
(dp62
S'N'
p63
(dp64
S'value'
p65
(lp66
(dp67
S'count'
p68
I1
sS'data'
p69
(lp70
S'AUV-SP/TAI-Y/TACON'
p71
ag9
aI11554
asassssssssS'B'
p72
(dp73
g65
(lp74
(dp75
g68
I1
sg69
(lp76
S'AUV-SP/TAI-B'
p77
ag9
aI9969
asassssg41
(dp78
g72
(dp79
g65
(lp80
(dp81
g68
I1
sg69
(lp82
S'AUV-SP/TA-B'
p83
aS'I-NP'
p84
aI6373
asa(dp85
g68
I1
sg69
(lp86
S'AUV-SP/TA-B'
p87
ag9
aI5567
asasssssS'D'
p88
(dp89
g35
(dp90
g41
(dp91
g55
(dp92
g47
(dp93
g49
(dp94
g35
(dp95
g60
(dp96
g9
(dp97
g63
(dp98
g65
(lp99
(dp100
g68
I1
sg69
(lp101
S'AUV-SP/DA-Y/TACON'
p102
aS'I-NP'
p103
aI9761
asasssssssg65
(lp104
(dp105
g68
I1
sg69
(lp106
S'AUV-SP/DA-Y'
p107
ag9
aI7594
asa(dp108
g68
I1
sg69
(lp109
S'AUV-SP/DA-Y'
p110
aS'I-NP'
p111
aI9721
asassg43
(dp112
g37
(dp113
g72
(dp114
g60
(dp115
g9
(dp116
g63
(dp117
g65
(lp118
(dp119
g68
I1
sg69
(lp120
S'AUV-SP/DA-SUBCON'
p121
aS'I-NP'
p122
aI7558
asa(dp123
g68
I1
sg69
(lp124
S'AUV-SP/DA-SUBCON'
p125
ag9
aI11534
asasssssssg72
(dp126
g65
(lp127
(dp128
g68
I1
sg69
(lp129
S'AUV-SP/DA-B'
p130
ag9
aI9554
asassS'Z'
p131
(dp132
g65
(lp133
(dp134
g68
I1
sg69
(lp135
S'AUV-SP/DA-Z'
p136
ag9
aI11554
asasssssg63
(dp137
g35
(dp138
g52
(dp139
g41
(dp140
g55
(dp141
g47
(dp142
g49
(dp143
g35
(dp144
g60
(dp145
g9
(dp146
g63
(dp147
g65
(lp148
(dp149
g68
I1
sg69
(lp150
S'AUV-SP/NAI-Y/TACON'
p151
ag9
aI9989
asa(dp152
g68
I1
sg69
(lp153
S'AUV-SP/NAI-Y/TACON'
p154
aS'I-NP'
p155
aI11326
asassssssssg72
(dp156
g65
(lp157
(dp158
g68
I1
sg69
(lp159
S'AUV-SP/NAI-B'
p160
ag9
aI8009
asa(dp161
g68
I1
sg69
(lp162
S'AUV-SP/NAI-B'
p163
aS'I-NP'
p164
aI10306
asasssssg37
(dp165
g41
(dp166
g55
(dp167
g47
(dp168
g49
(dp169
S'E'
p170
(dp171
g60
(dp172
g9
(dp173
g63
(dp174
g65
(lp175
(dp176
g68
I1
sg69
(lp177
S'AUV-SP/NU-Y/TECON'
p178
ag9
aI8767
asa(dp179
g68
I1
sg69
(lp180
S'AUV-SP/NU-Y/TECON'
p181
aS'I-NP'
p182
aI11326
asassssssssssssssg72
(dp183
g37
(dp184
g63
(dp185
g47
(dp186
S'R'
p187
(dp188
g52
(dp189
g41
(dp190
g43
(dp191
g37
(dp192
g72
(dp193
g60
(dp194
g9
(dp195
g63
(dp196
g65
(lp197
(dp198
g68
I1
sg69
(lp199
S'AUV-BUN/RI-SUBCON'
p200
aS'I-NP'
p201
aI11346
asassssssssssg72
(dp202
g170
(dp203
g43
(dp204
g41
(dp205
g55
(dp206
g65
(lp207
(dp208
g68
I1
sg69
(lp209
S'AUV-BUN/BES-Y'
p210
ag9
aI11554
asassg43
(dp211
g37
(dp212
g72
(dp213
g60
(dp214
g9
(dp215
g63
(dp216
g65
(lp217
(dp218
g68
I1
sg69
(lp219
S'AUV-BUN/BES-SUBCON'
p220
ag9
aI9969
asasssssssssssssssS'G'
p221
(dp222
g9
(dp223
g88
(dp224
g35
(dp225
g63
(dp226
g47
(dp227
g187
(dp228
g35
(dp229
g47
(dp230
g35
(dp231
g187
(dp232
g37
(dp233
g41
(dp234
g55
(dp235
g47
(dp236
g49
(dp237
g35
(dp238
g60
(dp239
g9
(dp240
g63
(dp241
g65
(lp242
(dp243
g68
I1
sg69
(lp244
S'AUV-GODAN/RA/ARU-Y/TACON'
p245
ag9
aI11554
asasssssssg65
(lp246
(dp247
g68
I1
sg69
(lp248
S'AUV-GODAN/RA/ARU-Y'
p249
aS'I-NP'
p250
aI11346
asassg72
(dp251
g65
(lp252
(dp253
g68
I1
sg69
(lp254
S'AUV-GODAN/RA/ARU-B'
p255
aS'I-NP'
p256
aI11326
asa(dp257
g68
I1
sg69
(lp258
S'AUV-GODAN/RA/ARU-B'
p259
ag9
aI11574
asasssssssssssssssg63
(dp260
g9
(dp261
g60
(dp262
g9
(dp263
g63
(dp264
S'J'
p265
(dp266
g41
(dp267
g72
(dp268
g65
(lp269
(dp270
g68
I1
sg69
(lp271
S'AUV-NOCONJ-B'
p272
ag9
aI11554
asassssssssssssg88
(dp273
g265
(dp274
g41
(dp275
g52
(dp276
g41
(dp277
g35
(dp278
g88
(dp279
g265
(dp280
g47
(dp281
g52
(dp282
g41
(dp283
g72
(dp284
g65
(lp285
(dp286
g68
I1
sg69
(lp287
S'ADJ-I-ADJ/I-B'
p288
ag9
aI11554
asassg221
(dp289
g35
(dp290
g187
(dp291
g60
(dp292
g9
(dp293
g63
(dp294
g65
(lp295
(dp296
g68
I1
sg69
(lp297
S'ADJ-I-ADJ/I-GARCON'
p298
ag9
aI11554
asasssssssssg35
(dp299
g37
(dp300
g9
(dp301
g41
(dp302
g35
(dp303
g65
(lp304
(dp305
g68
I1
sg69
(lp306
S'ADJ-I-ADJ/AUO-A'
p307
ag9
aI11554
asassg55
(dp308
g47
(dp309
g49
(dp310
g35
(dp311
g60
(dp312
g9
(dp313
g63
(dp314
g65
(lp315
(dp316
g68
I1
sg69
(lp317
S'ADJ-I-ADJ/AUO-Y/TACON'
p318
ag9
aI9969
asasssssg170
(dp319
g60
(dp320
g9
(dp321
g63
(dp322
g65
(lp323
(dp324
g68
I1
sg69
(lp325
S'ADJ-I-ADJ/AUO-Y/TECON'
p326
ag9
aI9554
asassssssssg72
(dp327
g65
(lp328
(dp329
g68
I1
sg69
(lp330
S'ADJ-I-ADJ/AUO-B'
p331
ag9
aI9984
asa(dp332
g68
I1
sg69
(lp333
S'ADJ-I-ADJ/AUO-B'
p334
aS'B-NP'
p335
aI9567
asassssssssssssssg39
(dp336
g41
(dp337
g35
(dp338
g88
(dp339
g39
(dp340
g60
(dp341
g65
(lp342
(dp343
g68
I1
sg69
(lp344
S'ADV-ADVC'
p345
aS'I-NP'
p346
aI9344
asa(dp347
g68
I1
sg69
(lp348
S'ADV-ADVC'
p349
ag9
aI8971
asasssssg221
(dp350
g170
(dp351
g63
(dp352
g65
(lp353
(dp354
g68
I1
sg69
(lp355
S'ADV-GEN'
p356
ag9
aI9554
asassssssssg60
(dp357
g9
(dp358
g63
(dp359
g265
(dp360
g65
(lp361
(dp362
g68
I1
sg69
(lp363
S'CONJ'
p364
ag9
aI9554
asa(dp365
g68
I1
sg69
(lp366
S'CONJ'
p367
aS'I-NP'
p368
aI10346
asasssssg72
(dp369
g9
(dp370
g43
(dp371
g65
(lp372
(dp373
g68
I2
sg69
(lp374
S'BOS'
p375
ag9
aI0
asassssg170
(dp376
g9
(dp377
g43
(dp378
g65
(lp379
(dp380
g68
I2
sg69
g7
sassssg52
(dp381
S'M'
p382
(dp383
g65
(lp384
(dp385
g68
I1
sg69
(lp386
S'IM'
p387
aS'I-NP'
p388
aI11346
asasssg265
(dp389
g41
(dp390
g35
(dp391
g88
(dp392
g39
(dp393
S'L'
p394
(dp395
g65
(lp396
(dp397
g68
I1
sg69
(lp398
S'J-ADVL'
p399
aS'I-NP'
p400
aI11326
asa(dp401
g68
I1
sg69
(lp402
S'J-ADVL'
p403
ag9
aI8114
asasssssg265
(dp404
g60
(dp405
g9
(dp406
g63
(dp407
g265
(dp408
g65
(lp409
(dp410
g68
I1
sg69
(lp411
S'J-JCONJ'
p412
ag9
aI5298
asa(dp413
g68
I1
sg69
(lp414
S'J-JCONJ'
p415
aS'I-NP'
p416
aI7666
asasssssg72
(dp417
g65
(lp418
(dp419
g68
I1
sg69
(lp420
S'J-JB'
p421
ag9
aI4767
asa(dp422
g68
I1
sg69
(lp423
S'J-JB'
p424
aS'I-NP'
p425
aI8641
asassS'F'
p426
(dp427
g47
(dp428
g265
(dp429
S'H'
p430
(dp431
g47
(dp432
g265
(dp433
g43
(dp434
g65
(lp435
(dp436
g68
I1
sg69
(lp437
S'J-JF/JH/JS'
p438
ag9
aI11554
asasssssssg65
(lp439
(dp440
g68
I1
sg69
(lp441
S'J-JF'
p442
aS'I-NP'
p443
aI7550
asa(dp444
g68
I1
sg69
(lp445
S'J-JF'
p446
ag9
aI7121
asassg430
(dp447
g65
(lp448
(dp449
g68
I1
sg69
(lp450
S'J-JH'
p451
aS'I-NP'
p452
aI7298
asa(dp453
g68
I1
sg69
(lp454
S'J-JH'
p455
ag9
aI10514
asassS'K'
p456
(dp457
g41
(dp458
S'Q'
p459
(dp460
g65
(lp461
(dp462
g68
I1
sg69
(lp463
S'J-JK-Q'
p464
ag9
aI6030
asassg60
(dp465
g9
(dp466
g394
(dp467
g65
(lp468
(dp469
g68
I1
sg69
(lp470
S'J-JK-COL'
p471
ag9
aI7035
asa(dp472
g68
I1
sg69
(lp473
S'J-JK-COL'
p474
aS'I-NP'
p475
aI8303
asassssg221
(dp476
g170
(dp477
g63
(dp478
g65
(lp479
(dp480
g68
I1
sg69
(lp481
S'J-JK-GEN'
p482
aS'I-NP'
p483
aI5422
asa(dp484
g68
I1
sg69
(lp485
S'J-JK-GEN'
p486
ag9
aI3168
asassssssg43
(dp487
g65
(lp488
(dp489
g68
I1
sg69
(lp490
S'J-JS'
p491
aS'I-NP'
p492
aI11346
asasssg49
(dp493
g394
(dp494
g65
(lp495
(dp496
g68
I1
sg69
(lp497
S'J-TL'
p498
aS'I-NP'
p499
aI4306
asa(dp500
g68
I1
sg69
(lp501
S'J-TL'
p502
ag9
aI7954
asasssssg63
(dp503
g41
(dp504
g35
(dp505
g88
(dp506
g39
(dp507
g45
(dp508
g65
(lp509
(dp510
g68
I1
sg69
(lp511
S'N-ADVP'
p512
aS'B-NP'
p513
aI5042
asa(dp514
g68
I1
sg69
(lp515
S'N-ADVP'
p516
aS'I-NP'
p517
aI6420
asa(dp518
g68
I1
sg69
(lp519
S'N-ADVP'
p520
ag9
aI8099
asasssssg45
(dp521
g187
(dp522
g9
(dp523
g45
(dp524
g63
(dp525
g41
(dp526
g35
(dp527
g187
(dp528
g63
(dp529
g41
(dp530
g60
(dp531
g9
(dp532
g63
(dp533
g65
(lp534
(dp535
g68
I1
sg69
(lp536
S'N-PROPN-ARN-CON'
p537
aS'B-NP'
p538
aI7622
asa(dp539
g68
I1
sg69
(lp540
S'N-PROPN-ARN-CON'
p541
aS'I-NP'
p542
aI9306
asassssg221
(dp543
g170
(dp544
g63
(dp545
g65
(lp546
(dp547
g68
I1
sg69
(lp548
S'N-PROPN-ARN-GEN'
p549
aS'I-NP'
p550
aI7400
asa(dp551
g68
I1
sg69
(lp552
S'N-PROPN-ARN-GEN'
p553
aS'B-NP'
p554
aI5246
asa(dp555
g68
I1
sg69
(lp556
S'N-PROPN-ARN-GEN'
p557
ag9
aI10514
asassssssssg45
(dp558
g170
(dp559
g187
(dp560
g63
(dp561
g41
(dp562
g426
(dp563
g35
(dp564
g382
(dp565
g63
(dp566
g65
(lp567
(dp568
g68
I1
sg69
(lp569
S'N-PROPN-PERN-FAMN'
p570
aS'B-NP'
p571
aI4637
asa(dp572
g68
I1
sg69
(lp573
S'N-PROPN-PERN-FAMN'
p574
aS'I-NP'
p575
aI8661
asassssg43
(dp576
g49
(dp577
g63
(dp578
g65
(lp579
(dp580
g68
I1
sg69
(lp581
S'N-PROPN-PERN-FSTN'
p582
aS'I-NP'
p583
aI6722
asa(dp584
g68
I1
sg69
(lp585
S'N-PROPN-PERN-FSTN'
p586
aS'B-NP'
p587
aI6392
asassssssssssg221
(dp588
g170
(dp589
g63
(dp590
g65
(lp591
(dp592
g68
I1
sg69
(lp593
S'N-PROPN-GEN'
p594
aS'I-NP'
p595
aI8502
asa(dp596
g68
I1
sg69
(lp597
S'N-PROPN-GEN'
p598
aS'B-NP'
p599
aI7033
asassssg9
(dp600
g187
(dp601
g63
(dp602
g65
(lp603
(dp604
g68
I1
sg69
(lp605
S'N-PROPN-ORN'
p606
aS'B-NP'
p607
aI5478
asa(dp608
g68
I1
sg69
(lp609
S'N-PROPN-ORN'
p610
aS'I-NP'
p611
aI7958
asasssssssg63
(dp612
g41
(dp613
g221
(dp614
g170
(dp615
g63
(dp616
g65
(lp617
(dp618
g68
I1
sg69
(lp619
S'N-PRON-GEN'
p620
ag9
aI9989
asa(dp621
g68
I1
sg69
(lp622
S'N-PRON-GEN'
p623
aS'B-NP'
p624
aI9562
asasssssssssg43
(dp625
g35
(dp626
g60
(dp627
g65
(lp628
(dp629
g68
I1
sg69
(lp630
S'N-SAC'
p631
aS'I-NP'
p632
aI4084
asa(dp633
g68
I1
sg69
(lp634
S'N-SAC'
p635
aS'B-NP'
p636
aI2822
asa(dp637
g68
I1
sg69
(lp638
S'N-SAC'
p639
ag9
aI5217
asasssg426
(dp640
g41
(dp641
g35
(dp642
g187
(dp643
g63
(dp644
g65
(lp645
(dp646
g68
I1
sg69
(lp647
S'N-SF-ARN'
p648
aS'I-NP'
p649
aI7479
asa(dp650
g68
I1
sg69
(lp651
S'N-SF-ARN'
p652
ag9
aI10514
asasssg88
(dp653
g39
(dp654
g45
(dp655
g65
(lp656
(dp657
g68
I1
sg69
(lp658
S'N-SF-ADVP'
p659
aS'I-NP'
p660
aI8578
asa(dp661
g68
I1
sg69
(lp662
S'N-SF-ADVP'
p663
ag9
aI10514
asasssssg60
(dp664
g43
(dp665
g37
(dp666
g426
(dp667
g65
(lp668
(dp669
g68
I1
sg69
(lp670
S'N-SF-CSUF'
p671
aS'I-NP'
p672
aI5236
asa(dp673
g68
I1
sg69
(lp674
S'N-SF-CSUF'
p675
ag9
aI9909
asasssssg221
(dp676
g170
(dp677
g63
(dp678
g65
(lp679
(dp680
g68
I1
sg69
(lp681
S'N-SF-GEN'
p682
aS'I-NP'
p683
aI4881
asa(dp684
g68
I1
sg69
(lp685
S'N-SF-GEN'
p686
ag9
aI8864
asassssg63
(dp687
g35
(dp688
g35
(dp689
g88
(dp690
g265
(dp691
g43
(dp692
g49
(dp693
g170
(dp694
g382
(dp695
g65
(lp696
(dp697
g68
I1
sg69
(lp698
S'N-SF-NAADJSTEM'
p699
aS'I-NP'
p700
aI9406
asa(dp701
g68
I1
sg69
(lp702
S'N-SF-NAADJSTEM'
p703
ag9
aI9909
asassssssssssg45
(dp704
g170
(dp705
g187
(dp706
g63
(dp707
g65
(lp708
(dp709
g68
I1
sg69
(lp710
S'N-SF-PERN'
p711
aS'I-NP'
p712
aI7439
asasssssg43
(dp713
g35
(dp714
g60
(dp715
g65
(lp716
(dp717
g68
I1
sg69
(lp718
S'N-SF-SAC'
p719
aS'I-NP'
p720
aI11346
asasssg45
(dp721
g65
(lp722
(dp723
g68
I1
sg69
(lp724
S'N-SF-SP'
p725
ag9
aI11554
asassssssg221
(dp726
g170
(dp727
g63
(dp728
g65
(lp729
(dp730
g68
I1
sg69
(lp731
S'N-GEN'
p732
aS'I-NP'
p733
aI3654
asa(dp734
g68
I1
sg69
(lp735
S'N-GEN'
p736
aS'B-NP'
p737
aI2413
asa(dp738
g68
I1
sg69
(lp739
S'N-GEN'
p740
ag9
aI5647
asassssg63
(dp741
g52
(dp742
g41
(dp743
g35
(dp744
g37
(dp745
g39
(dp746
g43
(dp747
g49
(dp748
g170
(dp749
g382
(dp750
g65
(lp751
(dp752
g68
I1
sg69
(lp753
S'N-NI-AUVSTEM'
p754
aS'I-NP'
p755
aI11326
asa(dp756
g68
I1
sg69
(lp757
S'N-NI-AUVSTEM'
p758
ag9
aI10574
asasssssssg88
(dp759
g39
(dp760
g45
(dp761
g65
(lp762
(dp763
g68
I1
sg69
(lp764
S'N-NI-ADVP'
p765
aS'I-NP'
p766
aI7812
asa(dp767
g68
I1
sg69
(lp768
S'N-NI-ADVP'
p769
ag9
aI8918
asasssssg221
(dp770
g170
(dp771
g63
(dp772
g65
(lp773
(dp774
g68
I1
sg69
(lp775
S'N-NI-GEN'
p776
ag9
aI8324
asa(dp777
g68
I1
sg69
(lp778
S'N-NI-GEN'
p779
aS'I-NP'
p780
aI8084
asassssssg35
(dp781
g52
(dp782
g65
(lp783
(dp784
g68
I1
sg69
(lp785
S'N-NAI'
p786
aS'I-NP'
p787
aI9761
asassg35
(dp788
g88
(dp789
g265
(dp790
g43
(dp791
g49
(dp792
g170
(dp793
g382
(dp794
g65
(lp795
(dp796
g68
I1
sg69
(lp797
S'N-NAADJSTEM'
p798
aS'B-NP'
p799
aI5540
asa(dp800
g68
I1
sg69
(lp801
S'N-NAADJSTEM'
p802
aS'I-NP'
p803
aI7229
asa(dp804
g68
I1
sg69
(lp805
S'N-NAADJSTEM'
p806
ag9
aI7455
asasssssssssg37
(dp807
g65
(lp808
(dp809
g68
I1
sg69
(lp810
S'N-NU'
p811
aS'B-NP'
p812
aI4160
asa(dp813
g68
I1
sg69
(lp814
S'N-NU'
p815
aS'I-NP'
p816
aI4664
asa(dp817
g68
I1
sg69
(lp818
S'N-NU'
p819
ag9
aI8394
asasssssg45
(dp820
g41
(dp821
g63
(dp822
g60
(dp823
g65
(lp824
(dp825
g68
I1
sg69
(lp826
S'P-NC'
p827
aS'I-NP'
p828
aI7516
asa(dp829
g68
I1
sg69
(lp830
S'P-NC'
p831
aS'B-NP'
p832
aI6164
asa(dp833
g68
I1
sg69
(lp834
S'P-NC'
p835
ag9
aI11534
asassg37
(dp836
g60
(dp837
g65
(lp838
(dp839
g68
I1
sg69
(lp840
S'P-NUC'
p841
aS'I-NP'
p842
aI10351
asa(dp843
g68
I1
sg69
(lp844
S'P-NUC'
p845
aS'B-NP'
p846
aI6992
asassssssg43
(dp847
g55
(dp848
g41
(dp849
g35
(dp850
g394
(dp851
g65
(lp852
(dp853
g68
I1
sg69
(lp854
S'SY-AL'
p855
ag9
aI7969
asasssg60
(dp856
g9
(dp857
g382
(dp858
g65
(lp859
(dp860
g68
I1
sg69
(lp861
S'SY-COM'
p862
aS'I-NP'
p863
aI7076
asa(dp864
g68
I1
sg69
(lp865
S'SY-COM'
p866
ag9
aI4617
asassssg72
(dp867
g187
(dp868
g35
(dp869
g65
(lp870
(dp871
g68
I1
sg69
(lp872
S'SY-BRA'
p873
ag9
aI6041
asa(dp874
g68
I1
sg69
(lp875
S'SY-BRA'
p876
aS'B-NP'
p877
aI7160
asa(dp878
g68
I1
sg69
(lp879
S'SY-BRA'
p880
aS'I-NP'
p881
aI6900
asassssg221
(dp882
g170
(dp883
g63
(dp884
g65
(lp885
(dp886
g68
I1
sg69
(lp887
S'SY-GEN'
p888
ag9
aI7315
asa(dp889
g68
I1
sg69
(lp890
S'SY-GEN'
p891
aS'I-NP'
p892
aI8000
asassssg456
(dp893
g170
(dp894
g49
(dp895
g65
(lp896
(dp897
g68
I1
sg69
(lp898
S'SY-KET'
p899
ag9
aI6076
asa(dp900
g68
I1
sg69
(lp901
S'SY-KET'
p902
aS'I-NP'
p903
aI6525
asassssg45
(dp904
g170
(dp905
g65
(lp906
(dp907
g68
I1
sg69
(lp908
S'SY-PE'
p909
ag9
aI4939
asasssg43
(dp910
g45
(dp911
g60
(dp912
g65
(lp913
(dp914
g68
I1
sg69
(lp915
S'SY-SPC'
p916
ag9
aI6466
asasssssssg49
(dp917
g65
(lp918
(dp919
g68
I1
sg69
(lp920
g49
aS'B-NP'
p921
aI7280
asa(dp922
g68
I1
sg69
(lp923
g49
ag9
aI11534
asa(dp924
g68
I1
sg69
(lp925
g49
aS'I-NP'
p926
aI11346
asassg39
(dp927
g41
(dp928
g52
(dp929
g41
(dp930
g52
(dp931
g60
(dp932
g430
(dp933
g52
(dp934
g88
(dp935
g35
(dp936
g63
(dp937
g41
(dp938
g55
(dp939
g65
(lp940
(dp941
g68
I1
sg69
(lp942
S'V-I-ICHIDAN-Y'
p943
ag9
aI6459
asa(dp944
g68
I1
sg69
(lp945
S'V-I-ICHIDAN-Y'
p946
aS'I-NP'
p947
aI9271
asassg131
(dp948
g65
(lp949
(dp950
g68
I1
sg69
(lp951
S'V-I-ICHIDAN-Z'
p952
ag9
aI8134
asa(dp953
g68
I1
sg69
(lp954
S'V-I-ICHIDAN-Z'
p955
aS'I-NP'
p956
aI10306
asassg72
(dp957
g65
(lp958
(dp959
g68
I1
sg69
(lp960
S'V-I-ICHIDAN-B'
p961
aS'I-NP'
p962
aI8726
asa(dp963
g68
I1
sg69
(lp964
S'V-I-ICHIDAN-B'
p965
ag9
aI8129
asassssssssssg43
(dp966
g35
(dp967
g430
(dp968
g170
(dp969
g63
(dp970
g47
(dp971
g43
(dp972
g37
(dp973
g187
(dp974
g41
(dp975
g55
(dp976
g65
(lp977
(dp978
g68
I1
sg69
(lp979
S'V-I-SAHEN/SUR-Y'
p980
ag9
aI5758
asa(dp981
g68
I1
sg69
(lp982
S'V-I-SAHEN/SUR-Y'
p983
aS'I-NP'
p984
aI7682
asassg187
(dp985
g170
(dp986
g187
(dp987
g37
(dp988
g60
(dp989
g9
(dp990
g63
(dp991
g65
(lp992
(dp993
g68
I1
sg69
(lp994
S'V-I-SAHEN/SUR-RERUCON'
p995
ag9
aI8138
asa(dp996
g68
I1
sg69
(lp997
S'V-I-SAHEN/SUR-RERUCON'
p998
aS'I-NP'
p999
aI8717
asassssssssg72
(dp1000
g37
(dp1001
g63
(dp1002
g47
(dp1003
g72
(dp1004
g65
(lp1005
(dp1006
g68
I1
sg69
(lp1007
S'V-I-SAHEN/SUR-BUN/B'
p1008
ag9
aI11554
asasssssg65
(lp1009
(dp1010
g68
I1
sg69
(lp1011
S'V-I-SAHEN/SUR-B'
p1012
ag9
aI7814
asa(dp1013
g68
I1
sg69
(lp1014
S'V-I-SAHEN/SUR-B'
p1015
aS'I-NP'
p1016
aI8800
asassg131
(dp1017
g65
(lp1018
(dp1019
g68
I1
sg69
(lp1020
S'V-I-SAHEN/SUR-Z'
p1021
ag9
aI11554
asassssssssssssg221
(dp1022
g9
(dp1023
g88
(dp1024
g35
(dp1025
g63
(dp1026
g47
(dp1027
g72
(dp1028
g35
(dp1029
g41
(dp1030
g131
(dp1031
g65
(lp1032
(dp1033
g68
I1
sg69
(lp1034
S'V-I-GODAN/BA-Z'
p1035
ag9
aI11554
asasssssg221
(dp1036
g35
(dp1037
g41
(dp1038
g55
(dp1039
g47
(dp1040
g49
(dp1041
g35
(dp1042
g60
(dp1043
g9
(dp1044
g63
(dp1045
g65
(lp1046
(dp1047
g68
I1
sg69
(lp1048
S'V-I-GODAN/GA-Y/TACON'
p1049
ag9
aI9969
asasssssssssssg456
(dp1050
g35
(dp1051
g47
(dp1052
g52
(dp1053
g41
(dp1054
g55
(dp1055
g47
(dp1056
g49
(dp1057
g35
(dp1058
g60
(dp1059
g9
(dp1060
g63
(dp1061
g65
(lp1062
(dp1063
g68
I1
sg69
(lp1064
S'V-I-GODAN/KA/I-Y/TACON'
p1065
ag9
aI10554
asasssssssg65
(lp1066
(dp1067
g68
I1
sg69
(lp1068
S'V-I-GODAN/KA/I-Y'
p1069
ag9
aI11554
asassg72
(dp1070
g65
(lp1071
(dp1072
g68
I1
sg69
(lp1073
S'V-I-GODAN/KA/I-B'
p1074
aS'I-NP'
p1075
aI11346
asassssg43
(dp1076
g9
(dp1077
g456
(dp1078
g41
(dp1079
g49
(dp1080
g65
(lp1081
(dp1082
g68
I1
sg69
(lp1083
S'V-I-GODAN/KA/SOK-T'
p1084
aS'I-NP'
p1085
aI11346
asasssssssssg382
(dp1086
g35
(dp1087
g41
(dp1088
g55
(dp1089
g47
(dp1090
g49
(dp1091
g35
(dp1092
g60
(dp1093
g9
(dp1094
g63
(dp1095
g65
(lp1096
(dp1097
g68
I1
sg69
(lp1098
S'V-I-GODAN/MA-Y/TACON'
p1099
ag9
aI9969
asassssssssg72
(dp1100
g65
(lp1101
(dp1102
g68
I1
sg69
(lp1103
S'V-I-GODAN/MA-B'
p1104
aS'I-NP'
p1105
aI11326
asa(dp1106
g68
I1
sg69
(lp1107
S'V-I-GODAN/MA-B'
p1108
ag9
aI10574
asassg131
(dp1109
g65
(lp1110
(dp1111
g68
I1
sg69
(lp1112
S'V-I-GODAN/MA-Z'
p1113
ag9
aI10554
asasssssg43
(dp1114
g35
(dp1115
g41
(dp1116
g55
(dp1117
g65
(lp1118
(dp1119
g68
I1
sg69
(lp1120
S'V-I-GODAN/SA-Y'
p1121
ag9
aI8009
asa(dp1122
g68
I1
sg69
(lp1123
S'V-I-GODAN/SA-Y'
p1124
aS'I-NP'
p1125
aI10306
asassg35
(dp1126
g65
(lp1127
(dp1128
g68
I1
sg69
(lp1129
S'V-I-GODAN/SA-A'
p1130
aS'I-NP'
p1131
aI11346
asassg187
(dp1132
g47
(dp1133
g170
(dp1134
g65
(lp1135
(dp1136
g68
I1
sg69
(lp1137
S'V-I-GODAN/SA-R/E'
p1138
ag9
aI11554
asassssg131
(dp1139
g65
(lp1140
(dp1141
g68
I1
sg69
(lp1142
S'V-I-GODAN/SA-Z'
p1143
ag9
aI11554
asassg72
(dp1144
g65
(lp1145
(dp1146
g68
I1
sg69
(lp1147
S'V-I-GODAN/SA-B'
p1148
ag9
aI9593
asa(dp1149
g68
I1
sg69
(lp1150
S'V-I-GODAN/SA-B'
p1151
aS'I-NP'
p1152
aI10307
asasssssg187
(dp1153
g35
(dp1154
g41
(dp1155
g55
(dp1156
g47
(dp1157
g49
(dp1158
g35
(dp1159
g60
(dp1160
g9
(dp1161
g63
(dp1162
g65
(lp1163
(dp1164
g68
I1
sg69
(lp1165
S'V-I-GODAN/RA-Y/TACON'
p1166
aS'I-NP'
p1167
aI10306
asa(dp1168
g68
I1
sg69
(lp1169
S'V-I-GODAN/RA-Y/TACON'
p1170
ag9
aI7506
asasssssssg65
(lp1171
(dp1172
g68
I1
sg69
(lp1173
S'V-I-GODAN/RA-Y'
p1174
ag9
aI8404
asa(dp1175
g68
I1
sg69
(lp1176
S'V-I-GODAN/RA-Y'
p1177
aS'I-NP'
p1178
aI11326
asassg131
(dp1179
g65
(lp1180
(dp1181
g68
I1
sg69
(lp1182
S'V-I-GODAN/RA-Z'
p1183
ag9
aI9252
asa(dp1184
g68
I1
sg69
(lp1185
S'V-I-GODAN/RA-Z'
p1186
aS'I-NP'
p1187
aI11326
asassg72
(dp1188
g65
(lp1189
(dp1190
g68
I1
sg69
(lp1191
S'V-I-GODAN/RA-B'
p1192
ag9
aI7566
asa(dp1193
g68
I1
sg69
(lp1194
S'V-I-GODAN/RA-B'
p1195
aS'I-NP'
p1196
aI8438
asa(dp1197
g68
I1
sg69
(lp1198
S'V-I-GODAN/RA-B'
p1199
aS'B-NP'
p1200
aI9582
asasssssg49
(dp1201
g35
(dp1202
g41
(dp1203
g131
(dp1204
g65
(lp1205
(dp1206
g68
I1
sg69
(lp1207
S'V-I-GODAN/TA-Z'
p1208
ag9
aI11554
asasssssS'W'
p1209
(dp1210
g35
(dp1211
g47
(dp1212
g43
(dp1213
g9
(dp1214
g456
(dp1215
g41
(dp1216
g55
(dp1217
g47
(dp1218
g49
(dp1219
g35
(dp1220
g60
(dp1221
g9
(dp1222
g63
(dp1223
g65
(lp1224
(dp1225
g68
I1
sg69
(lp1226
S'V-I-GODAN/WA/SOK-Y/TACON'
p1227
ag9
aI10554
asasssssssg65
(lp1228
(dp1229
g68
I1
sg69
(lp1230
S'V-I-GODAN/WA/SOK-Y'
p1231
ag9
aI9252
asa(dp1232
g68
I1
sg69
(lp1233
S'V-I-GODAN/WA/SOK-Y'
p1234
aS'I-NP'
p1235
aI11326
asassg131
(dp1236
g65
(lp1237
(dp1238
g68
I1
sg69
(lp1239
S'V-I-GODAN/WA/SOK-Z'
p1240
ag9
aI10009
asa(dp1241
g68
I1
sg69
(lp1242
S'V-I-GODAN/WA/SOK-Z'
p1243
aS'I-NP'
p1244
aI10306
asassg72
(dp1245
g65
(lp1246
(dp1247
g68
I1
sg69
(lp1248
S'V-I-GODAN/WA/SOK-B'
p1249
aS'I-NP'
p1250
aI9321
asa(dp1251
g68
I1
sg69
(lp1252
S'V-I-GODAN/WA/SOK-B'
p1253
ag9
aI8772
asasssssssssssssssssg43
(dp1254
g426
(dp1255
g41
(dp1256
g52
(dp1257
g60
(dp1258
g430
(dp1259
g52
(dp1260
g88
(dp1261
g35
(dp1262
g63
(dp1263
g41
(dp1264
g55
(dp1265
g65
(lp1266
(dp1267
g68
I1
sg69
(lp1268
S'V-SF-ICHIDAN-Y'
p1269
ag9
aI7921
asa(dp1270
g68
I1
sg69
(lp1271
S'V-SF-ICHIDAN-Y'
p1272
aS'I-NP'
p1273
aI8470
asassg131
(dp1274
g65
(lp1275
(dp1276
g68
I1
sg69
(lp1277
S'V-SF-ICHIDAN-Z'
p1278
ag9
aI9969
asassg72
(dp1279
g65
(lp1280
(dp1281
g68
I1
sg69
(lp1282
S'V-SF-ICHIDAN-B'
p1283
ag9
aI8969
asassssssssssg221
(dp1284
g9
(dp1285
g88
(dp1286
g35
(dp1287
g63
(dp1288
g47
(dp1289
g187
(dp1290
g35
(dp1291
g41
(dp1292
g72
(dp1293
g65
(lp1294
(dp1295
g68
I1
sg69
(lp1296
S'V-SF-GODAN/RA-B'
p1297
ag9
aI11554
asassssssssssssssg63
(dp1298
g52
(dp1299
g41
(dp1300
g52
(dp1301
g60
(dp1302
g430
(dp1303
g52
(dp1304
g88
(dp1305
g35
(dp1306
g63
(dp1307
g41
(dp1308
g55
(dp1309
g65
(lp1310
(dp1311
g68
I1
sg69
(lp1312
S'V-NI-ICHIDAN-Y'
p1313
ag9
aI8504
asa(dp1314
g68
I1
sg69
(lp1315
S'V-NI-ICHIDAN-Y'
p1316
aS'I-NP'
p1317
aI8641
asassg131
(dp1318
g65
(lp1319
(dp1320
g68
I1
sg69
(lp1321
S'V-NI-ICHIDAN-Z'
p1322
ag9
aI11554
asassg72
(dp1323
g65
(lp1324
(dp1325
g68
I1
sg69
(lp1326
S'V-NI-ICHIDAN-B'
p1327
ag9
aI6660
asa(dp1328
g68
I1
sg69
(lp1329
S'V-NI-ICHIDAN-B'
p1330
aS'I-NP'
p1331
aI9701
asassssssssssg456
(dp1332
g35
(dp1333
g430
(dp1334
g170
(dp1335
g63
(dp1336
g47
(dp1337
g456
(dp1338
g37
(dp1339
g187
(dp1340
g41
(dp1341
g55
(dp1342
g65
(lp1343
(dp1344
g68
I1
sg69
(lp1345
S'V-NI-KAHEN/KUR-Y'
p1346
ag9
aI10574
asa(dp1347
g68
I1
sg69
(lp1348
S'V-NI-KAHEN/KUR-Y'
p1349
aS'I-NP'
p1350
aI11326
asassssssssssssg221
(dp1351
g9
(dp1352
g88
(dp1353
g35
(dp1354
g63
(dp1355
g47
(dp1356
g456
(dp1357
g35
(dp1358
g47
(dp1359
g52
(dp1360
g41
(dp1361
g55
(dp1362
g65
(lp1363
(dp1364
g68
I1
sg69
(lp1365
S'V-NI-GODAN/KA/I-Y'
p1366
ag9
aI11554
asassssg43
(dp1367
g9
(dp1368
g456
(dp1369
g41
(dp1370
g55
(dp1371
g47
(dp1372
g49
(dp1373
g35
(dp1374
g60
(dp1375
g9
(dp1376
g63
(dp1377
g65
(lp1378
(dp1379
g68
I1
sg69
(lp1380
S'V-NI-GODAN/KA/SOK-Y/TACON'
p1381
ag9
aI11554
asasssssssssssssssg187
(dp1382
g35
(dp1383
g41
(dp1384
g55
(dp1385
g65
(lp1386
(dp1387
g68
I1
sg69
(lp1388
S'V-NI-GODAN/RA-Y'
p1389
ag9
aI10554
asassg131
(dp1390
g65
(lp1391
(dp1392
g68
I1
sg69
(lp1393
S'V-NI-GODAN/RA-Z'
p1394
ag9
aI11554
asassg72
(dp1395
g65
(lp1396
(dp1397
g68
I1
sg69
(lp1398
S'V-NI-GODAN/RA-B'
p1399
ag9
aI11554
asasssssg1209
(dp1400
g35
(dp1401
g47
(dp1402
g43
(dp1403
g9
(dp1404
g456
(dp1405
g41
(dp1406
g55
(dp1407
g65
(lp1408
(dp1409
g68
I1
sg69
(lp1410
S'V-NI-GODAN/WA/SOK-Y'
p1411
ag9
aI11554
asassg72
(dp1412
g65
(lp1413
(dp1414
g68
I1
sg69
(lp1415
S'V-NI-GODAN/WA/SOK-B'
p1416
ag9
aI11554
asasssssssssssssssssssssbsbsS'_Chunker__bos_phrase'
p1417
g374
sb.