ccopy_reg
_reconstructor
p0
(cnlang.processor.chunker
ChunkerImpl
p1
c__builtin__
object
p2
Ntp3
Rp4
(dp5
S'_ChunkerImpl__eos_clause'
p6
(lp7
S'EOS'
p8
aS'O'
p9
aI0
asS'_ChunkerImpl__iob_conn'
p10
(inlang.base.data.conn_table
ConnectivityTable
p11
(dp12
S'_ConnectivityTable__table'
p13
(dp14
S'I'
p15
(dp16
g15
I1090
sS'B'
p17
I6632
sg9
I4501
ssg17
(dp18
g15
I-4287
sg17
I1367
sg9
I3262
ssg9
(dp19
g17
I1612
sg9
I2631
sssbsS'_Singleton__initialized'
p20
I01
sS'_ChunkerImpl__clauses'
p21
g0
(cnlang.base.data.clause
Clause
p22
g2
Ntp23
Rp24
(dp25
S'_Clause__clauses'
p26
g0
(cnlang.base.data.trie
Trie
p27
g2
Ntp28
Rp29
(dp30
S'root'
p31
(dp32
S'A'
p33
(dp34
S'U'
p35
(dp36
S'V'
p37
(dp38
S'-'
p39
(dp40
S'S'
p41
(dp42
S'P'
p43
(dp44
S'/'
p45
(dp46
S'T'
p47
(dp48
g33
(dp49
g15
(dp50
g39
(dp51
S'Y'
p52
(dp53
g45
(dp54
g47
(dp55
g33
(dp56
S'C'
p57
(dp58
g9
(dp59
S'N'
p60
(dp61
S'value'
p62
(lp63
(dp64
S'count'
p65
I1
sS'data'
p66
(lp67
S'AUV-SP/TAI-Y/TACON'
p68
ag15
aI9360
asassssssssssg39
(dp69
g17
(dp70
g62
(lp71
(dp72
g65
I1
sg66
(lp73
S'AUV-SP/TA-B'
p74
ag15
aI4273
asasssssS'D'
p75
(dp76
g33
(dp77
g39
(dp78
g52
(dp79
g62
(lp80
(dp81
g65
I1
sg66
(lp82
S'AUV-SP/DA-Y'
p83
ag15
aI7038
asassg41
(dp84
g35
(dp85
g17
(dp86
g57
(dp87
g9
(dp88
g60
(dp89
g62
(lp90
(dp91
g65
I1
sg66
(lp92
S'AUV-SP/DA-SUBCON'
p93
ag15
aI8360
asasssssssg17
(dp94
g62
(lp95
(dp96
g65
I1
sg66
(lp97
S'AUV-SP/DA-B'
p98
ag15
aI9360
asassS'Z'
p99
(dp100
g62
(lp101
(dp102
g65
I1
sg66
(lp103
S'AUV-SP/DA-Z'
p104
ag15
aI9360
asasssssg60
(dp105
g33
(dp106
g15
(dp107
g39
(dp108
g52
(dp109
g45
(dp110
g47
(dp111
g33
(dp112
g57
(dp113
g9
(dp114
g60
(dp115
g62
(lp116
(dp117
g65
I1
sg66
(lp118
S'AUV-SP/NAI-Y/TACON'
p119
ag15
aI9360
asassssssssg17
(dp120
g62
(lp121
(dp122
g65
I1
sg66
(lp123
S'AUV-SP/NAI-B'
p124
ag15
aI7038
asasssssg35
(dp125
g39
(dp126
g52
(dp127
g45
(dp128
g47
(dp129
S'E'
p130
(dp131
g57
(dp132
g9
(dp133
g60
(dp134
g62
(lp135
(dp136
g65
I1
sg66
(lp137
S'AUV-SP/NU-Y/TECON'
p138
ag15
aI7775
asassssssssssssssg17
(dp139
g35
(dp140
g60
(dp141
g45
(dp142
g17
(dp143
g130
(dp144
g41
(dp145
g39
(dp146
g52
(dp147
g62
(lp148
(dp149
g65
I1
sg66
(lp150
S'AUV-BUN/BES-Y'
p151
ag15
aI9360
asassssssssssS'G'
p152
(dp153
g9
(dp154
g75
(dp155
g33
(dp156
g60
(dp157
g45
(dp158
S'R'
p159
(dp160
g33
(dp161
g45
(dp162
g33
(dp163
g159
(dp164
g35
(dp165
g39
(dp166
g52
(dp167
g45
(dp168
g47
(dp169
g33
(dp170
g57
(dp171
g9
(dp172
g60
(dp173
g62
(lp174
(dp175
g65
I1
sg66
(lp176
S'AUV-GODAN/RA/ARU-Y/TACON'
p177
ag15
aI9360
asassssssssg17
(dp178
g62
(lp179
(dp180
g65
I1
sg66
(lp181
S'AUV-GODAN/RA/ARU-B'
p182
ag15
aI9360
asasssssssssssssssg60
(dp183
g9
(dp184
g57
(dp185
g9
(dp186
g60
(dp187
S'J'
p188
(dp189
g39
(dp190
g17
(dp191
g62
(lp192
(dp193
g65
I1
sg66
(lp194
S'AUV-NOCONJ-B'
p195
ag15
aI9360
asassssssssssssg75
(dp196
g188
(dp197
g39
(dp198
g15
(dp199
g39
(dp200
g33
(dp201
g75
(dp202
g188
(dp203
g45
(dp204
g15
(dp205
g39
(dp206
g152
(dp207
g33
(dp208
g159
(dp209
g57
(dp210
g9
(dp211
g60
(dp212
g62
(lp213
(dp214
g65
I1
sg66
(lp215
S'ADJ-I-ADJ/I-GARCON'
p216
ag17
aI8469
asasssssssssg33
(dp217
g35
(dp218
g9
(dp219
g39
(dp220
g33
(dp221
g62
(lp222
(dp223
g65
I1
sg66
(lp224
S'ADJ-I-ADJ/AUO-A'
p225
ag17
aI8469
asassg52
(dp226
g45
(dp227
g47
(dp228
g33
(dp229
g57
(dp230
g9
(dp231
g60
(dp232
g62
(lp233
(dp234
g65
I1
sg66
(lp235
S'ADJ-I-ADJ/AUO-Y/TACON'
p236
ag17
aI6884
asasssssg130
(dp237
g57
(dp238
g9
(dp239
g60
(dp240
g62
(lp241
(dp242
g65
I1
sg66
(lp243
S'ADJ-I-ADJ/AUO-Y/TECON'
p244
ag17
aI8469
asassssssssg17
(dp245
g62
(lp246
(dp247
g65
I1
sg66
(lp248
S'ADJ-I-ADJ/AUO-B'
p249
ag17
aI6884
asassssssssssssssg37
(dp250
g39
(dp251
g33
(dp252
g75
(dp253
g37
(dp254
g57
(dp255
g62
(lp256
(dp257
g65
I1
sg66
(lp258
S'ADV-ADVC'
p259
ag17
aI5884
asasssssg152
(dp260
g130
(dp261
g60
(dp262
g62
(lp263
(dp264
g65
I1
sg66
(lp265
S'ADV-GEN'
p266
ag17
aI7469
asassssssssg57
(dp267
g9
(dp268
g60
(dp269
g188
(dp270
g62
(lp271
(dp272
g65
I1
sg66
(lp273
S'CONJ'
p274
ag17
aI6884
asasssssg17
(dp275
g9
(dp276
g41
(dp277
g62
(lp278
(dp279
g65
I2
sg66
(lp280
S'BOS'
p281
ag9
aI0
asassssg130
(dp282
g9
(dp283
g41
(dp284
g62
(lp285
(dp286
g65
I2
sg66
g7
sassssg188
(dp287
g39
(dp288
g33
(dp289
g75
(dp290
g37
(dp291
S'L'
p292
(dp293
g62
(lp294
(dp295
g65
I1
sg66
(lp296
S'J-ADVL'
p297
ag15
aI7360
asasssssg188
(dp298
S'H'
p299
(dp300
g62
(lp301
(dp302
g65
I1
sg66
(lp303
S'J-JH'
p304
ag15
aI6038
asassS'K'
p305
(dp306
g39
(dp307
S'Q'
p308
(dp309
g62
(lp310
(dp311
g65
I1
sg66
(lp312
S'J-JK-Q'
p313
ag15
aI5553
asassg57
(dp314
g9
(dp315
g292
(dp316
g62
(lp317
(dp318
g65
I1
sg66
(lp319
S'J-JK-COL'
p320
ag15
aI6038
asassssg152
(dp321
g130
(dp322
g60
(dp323
g62
(lp324
(dp325
g65
I1
sg66
(lp326
S'J-JK-GEN'
p327
ag15
aI2180
asassssssg17
(dp328
g62
(lp329
(dp330
g65
I1
sg66
(lp331
S'J-JB'
p332
ag15
aI3837
asassg57
(dp333
g9
(dp334
g60
(dp335
g188
(dp336
g62
(lp337
(dp338
g65
I1
sg66
(lp339
S'J-JCONJ'
p340
ag15
aI3901
asasssssS'F'
p341
(dp342
g45
(dp343
g188
(dp344
g299
(dp345
g45
(dp346
g188
(dp347
g41
(dp348
g62
(lp349
(dp350
g65
I1
sg66
(lp351
S'J-JF/JH/JS'
p352
ag15
aI9360
asasssssssg62
(lp353
(dp354
g65
I1
sg66
(lp355
S'J-JF'
p356
ag15
aI5553
asasssg47
(dp357
g292
(dp358
g62
(lp359
(dp360
g65
I1
sg66
(lp361
S'J-TL'
p362
ag15
aI3605
asasssssg60
(dp363
g39
(dp364
g33
(dp365
g75
(dp366
g37
(dp367
g43
(dp368
g62
(lp369
(dp370
g65
I1
sg66
(lp371
S'N-ADVP'
p372
ag17
aI5350
asa(dp373
g65
I1
sg66
(lp374
S'N-ADVP'
p375
ag15
aI5572
asasssssg43
(dp376
g159
(dp377
g9
(dp378
g43
(dp379
g60
(dp380
g39
(dp381
g33
(dp382
g159
(dp383
g60
(dp384
g39
(dp385
g57
(dp386
g9
(dp387
g60
(dp388
g62
(lp389
(dp390
g65
I1
sg66
(lp391
S'N-PROPN-ARN-CON'
p392
ag17
aI8469
asassssg152
(dp393
g130
(dp394
g60
(dp395
g62
(lp396
(dp397
g65
I1
sg66
(lp398
S'N-PROPN-ARN-GEN'
p399
ag17
aI6155
asa(dp400
g65
I1
sg66
(lp401
S'N-PROPN-ARN-GEN'
p402
ag15
aI6352
asassssssssg43
(dp403
g130
(dp404
g159
(dp405
g60
(dp406
g39
(dp407
g341
(dp408
g33
(dp409
S'M'
p410
(dp411
g60
(dp412
g62
(lp413
(dp414
g65
I1
sg66
(lp415
S'N-PROPN-PERN-FAMN'
p416
ag17
aI6284
asa(dp417
g65
I1
sg66
(lp418
S'N-PROPN-PERN-FAMN'
p419
ag15
aI8960
asassssg41
(dp420
g47
(dp421
g60
(dp422
g62
(lp423
(dp424
g65
I1
sg66
(lp425
S'N-PROPN-PERN-FSTN'
p426
ag15
aI8360
asassssssssssg152
(dp427
g130
(dp428
g60
(dp429
g62
(lp430
(dp431
g65
I1
sg66
(lp432
S'N-PROPN-GEN'
p433
ag15
aI7064
asa(dp434
g65
I1
sg66
(lp435
S'N-PROPN-GEN'
p436
ag17
aI6858
asassssg9
(dp437
g159
(dp438
g60
(dp439
g62
(lp440
(dp441
g65
I1
sg66
(lp442
S'N-PROPN-ORN'
p443
ag17
aI5147
asasssssssg60
(dp444
g39
(dp445
g152
(dp446
g130
(dp447
g60
(dp448
g62
(lp449
(dp450
g65
I1
sg66
(lp451
S'N-PRON-GEN'
p452
ag17
aI7826
asa(dp453
g65
I1
sg66
(lp454
S'N-PRON-GEN'
p455
ag15
aI9003
asasssssssssg41
(dp456
g33
(dp457
g57
(dp458
g62
(lp459
(dp460
g65
I1
sg66
(lp461
S'N-SAC'
p462
ag15
aI3254
asa(dp463
g65
I1
sg66
(lp464
S'N-SAC'
p465
ag17
aI3028
asasssg341
(dp466
g39
(dp467
g33
(dp468
g159
(dp469
g60
(dp470
g62
(lp471
(dp472
g65
I1
sg66
(lp473
S'N-SF-ARN'
p474
ag15
aI6553
asasssg75
(dp475
g37
(dp476
g43
(dp477
g62
(lp478
(dp479
g65
I1
sg66
(lp480
S'N-SF-ADVP'
p481
ag15
aI7775
asasssssg57
(dp482
g41
(dp483
g35
(dp484
g341
(dp485
g62
(lp486
(dp487
g65
I1
sg66
(lp488
S'N-SF-CSUF'
p489
ag15
aI4968
asasssssg152
(dp490
g130
(dp491
g60
(dp492
g62
(lp493
(dp494
g65
I1
sg66
(lp495
S'N-SF-GEN'
p496
ag15
aI4075
asassssg60
(dp497
g33
(dp498
g33
(dp499
g75
(dp500
g188
(dp501
g41
(dp502
g47
(dp503
g130
(dp504
g410
(dp505
g62
(lp506
(dp507
g65
I1
sg66
(lp508
S'N-SF-NAADJSTEM'
p509
ag15
aI8360
asassssssssssg43
(dp510
g130
(dp511
g159
(dp512
g60
(dp513
g62
(lp514
(dp515
g65
I1
sg66
(lp516
S'N-SF-PERN'
p517
ag15
aI6553
asasssssg41
(dp518
g33
(dp519
g57
(dp520
g62
(lp521
(dp522
g65
I1
sg66
(lp523
S'N-SF-SAC'
p524
ag15
aI9360
asasssg43
(dp525
g62
(lp526
(dp527
g65
I1
sg66
(lp528
S'N-SF-SP'
p529
ag15
aI9360
asassssssg152
(dp530
g130
(dp531
g60
(dp532
g62
(lp533
(dp534
g65
I1
sg66
(lp535
S'N-GEN'
p536
ag17
aI2428
asa(dp537
g65
I1
sg66
(lp538
S'N-GEN'
p539
ag15
aI2677
asassssg60
(dp540
g15
(dp541
g39
(dp542
g33
(dp543
g75
(dp544
g37
(dp545
g43
(dp546
g62
(lp547
(dp548
g65
I1
sg66
(lp549
S'N-NI-ADVP'
p550
ag17
aI8322
asa(dp551
g65
I1
sg66
(lp552
S'N-NI-ADVP'
p553
ag15
aI8507
asasssssg152
(dp554
g130
(dp555
g60
(dp556
g62
(lp557
(dp558
g65
I1
sg66
(lp559
S'N-NI-GEN'
p560
ag15
aI6775
asassssssg33
(dp561
g15
(dp562
g62
(lp563
(dp564
g65
I1
sg66
(lp565
S'N-NAI'
p566
ag15
aI8360
asassg33
(dp567
g75
(dp568
g188
(dp569
g41
(dp570
g47
(dp571
g130
(dp572
g410
(dp573
g62
(lp574
(dp575
g65
I1
sg66
(lp576
S'N-NAADJSTEM'
p577
ag17
aI5568
asa(dp578
g65
I1
sg66
(lp579
S'N-NAADJSTEM'
p580
ag15
aI7560
asasssssssssg35
(dp581
g62
(lp582
(dp583
g65
I1
sg66
(lp584
S'N-NU'
p585
ag17
aI4335
asa(dp586
g65
I1
sg66
(lp587
S'N-NU'
p588
ag15
aI4548
asasssssg43
(dp589
g39
(dp590
g60
(dp591
g57
(dp592
g62
(lp593
(dp594
g65
I1
sg66
(lp595
S'P-NC'
p596
ag15
aI8960
asa(dp597
g65
I1
sg66
(lp598
S'P-NC'
p599
ag17
aI5699
asasssssg41
(dp600
g52
(dp601
g39
(dp602
g33
(dp603
g292
(dp604
g62
(lp605
(dp606
g65
I1
sg66
(lp607
S'SY-AL'
p608
ag15
aI6190
asa(dp609
g65
I1
sg66
(lp610
S'SY-AL'
p611
ag17
aI6884
asasssg57
(dp612
g9
(dp613
g410
(dp614
g62
(lp615
(dp616
g65
I1
sg66
(lp617
S'SY-COM'
p618
ag9
aI836
asassssg17
(dp619
g159
(dp620
g33
(dp621
g62
(lp622
(dp623
g65
I1
sg66
(lp624
S'SY-BRA'
p625
ag9
aI7079
asa(dp626
g65
I1
sg66
(lp627
S'SY-BRA'
p628
ag17
aI5242
asa(dp629
g65
I1
sg66
(lp630
S'SY-BRA'
p631
ag15
aI5554
asassssg152
(dp632
g130
(dp633
g60
(dp634
g62
(lp635
(dp636
g65
I1
sg66
(lp637
S'SY-GEN'
p638
ag9
aI6632
asa(dp639
g65
I1
sg66
(lp640
S'SY-GEN'
p641
ag15
aI6862
asassssg305
(dp642
g130
(dp643
g47
(dp644
g62
(lp645
(dp646
g65
I1
sg66
(lp647
S'SY-KET'
p648
ag9
aI6376
asa(dp649
g65
I1
sg66
(lp650
S'SY-KET'
p651
ag15
aI5180
asassssg43
(dp652
g130
(dp653
g62
(lp654
(dp655
g65
I1
sg66
(lp656
S'SY-PE'
p657
ag9
aI1433
asasssg41
(dp658
g43
(dp659
g57
(dp660
g62
(lp661
(dp662
g65
I1
sg66
(lp663
S'SY-SPC'
p664
ag9
aI3018
asasssssssg47
(dp665
g62
(lp666
(dp667
g65
I1
sg66
(lp668
g47
ag17
aI6147
asassg37
(dp669
g39
(dp670
g15
(dp671
g39
(dp672
g15
(dp673
g57
(dp674
g299
(dp675
g15
(dp676
g75
(dp677
g33
(dp678
g60
(dp679
g39
(dp680
g52
(dp681
g62
(lp682
(dp683
g65
I1
sg66
(lp684
S'V-I-ICHIDAN-Y'
p685
ag17
aI4884
asassg99
(dp686
g62
(lp687
(dp688
g65
I1
sg66
(lp689
S'V-I-ICHIDAN-Z'
p690
ag15
aI9060
asa(dp691
g65
I1
sg66
(lp692
S'V-I-ICHIDAN-Z'
p693
ag17
aI7184
asassg17
(dp694
g62
(lp695
(dp696
g65
I1
sg66
(lp697
S'V-I-ICHIDAN-B'
p698
ag17
aI5884
asassssssssssg41
(dp699
g33
(dp700
g299
(dp701
g130
(dp702
g60
(dp703
g45
(dp704
g41
(dp705
g35
(dp706
g159
(dp707
g39
(dp708
g52
(dp709
g62
(lp710
(dp711
g65
I1
sg66
(lp712
S'V-I-SAHEN/SUR-Y'
p713
ag15
aI5692
asa(dp714
g65
I1
sg66
(lp715
S'V-I-SAHEN/SUR-Y'
p716
ag17
aI5493
asassg159
(dp717
g130
(dp718
g159
(dp719
g35
(dp720
g57
(dp721
g9
(dp722
g60
(dp723
g62
(lp724
(dp725
g65
I1
sg66
(lp726
S'V-I-SAHEN/SUR-RERUCON'
p727
ag15
aI8360
asassssssssg17
(dp728
g62
(lp729
(dp730
g65
I1
sg66
(lp731
S'V-I-SAHEN/SUR-B'
p732
ag15
aI6038
asassssssssssssg152
(dp733
g9
(dp734
g75
(dp735
g33
(dp736
g60
(dp737
g45
(dp738
g17
(dp739
g33
(dp740
g39
(dp741
g99
(dp742
g62
(lp743
(dp744
g65
I1
sg66
(lp745
S'V-I-GODAN/BA-Z'
p746
ag17
aI8469
asasssssg305
(dp747
g33
(dp748
g45
(dp749
g15
(dp750
g39
(dp751
g52
(dp752
g45
(dp753
g47
(dp754
g33
(dp755
g57
(dp756
g9
(dp757
g60
(dp758
g62
(lp759
(dp760
g65
I1
sg66
(lp761
S'V-I-GODAN/KA/I-Y/TACON'
p762
ag17
aI8469
asasssssssssssssg410
(dp763
g33
(dp764
g39
(dp765
g52
(dp766
g45
(dp767
g47
(dp768
g33
(dp769
g57
(dp770
g9
(dp771
g60
(dp772
g62
(lp773
(dp774
g65
I1
sg66
(lp775
S'V-I-GODAN/MA-Y/TACON'
p776
ag17
aI8469
asassssssssg17
(dp777
g62
(lp778
(dp779
g65
I1
sg66
(lp780
S'V-I-GODAN/MA-B'
p781
ag17
aI7469
asassg99
(dp782
g62
(lp783
(dp784
g65
I1
sg66
(lp785
S'V-I-GODAN/MA-Z'
p786
ag17
aI8469
asasssssg41
(dp787
g33
(dp788
g39
(dp789
g52
(dp790
g62
(lp791
(dp792
g65
I1
sg66
(lp793
S'V-I-GODAN/SA-Y'
p794
ag17
aI7469
asassg99
(dp795
g62
(lp796
(dp797
g65
I1
sg66
(lp798
S'V-I-GODAN/SA-Z'
p799
ag17
aI8469
asassg17
(dp800
g62
(lp801
(dp802
g65
I1
sg66
(lp803
S'V-I-GODAN/SA-B'
p804
ag17
aI6884
asasssssg159
(dp805
g33
(dp806
g39
(dp807
g52
(dp808
g45
(dp809
g47
(dp810
g33
(dp811
g57
(dp812
g9
(dp813
g60
(dp814
g62
(lp815
(dp816
g65
I1
sg66
(lp817
S'V-I-GODAN/RA-Y/TACON'
p818
ag17
aI5469
asasssssssg62
(lp819
(dp820
g65
I1
sg66
(lp821
S'V-I-GODAN/RA-Y'
p822
ag17
aI6147
asassg99
(dp823
g62
(lp824
(dp825
g65
I1
sg66
(lp826
S'V-I-GODAN/RA-Z'
p827
ag17
aI7469
asassg17
(dp828
g62
(lp829
(dp830
g65
I1
sg66
(lp831
S'V-I-GODAN/RA-B'
p832
ag15
aI6942
asa(dp833
g65
I1
sg66
(lp834
S'V-I-GODAN/RA-B'
p835
ag17
aI6717
asasssssg47
(dp836
g33
(dp837
g39
(dp838
g99
(dp839
g62
(lp840
(dp841
g65
I1
sg66
(lp842
S'V-I-GODAN/TA-Z'
p843
ag17
aI8469
asasssssS'W'
p844
(dp845
g33
(dp846
g45
(dp847
g41
(dp848
g9
(dp849
g305
(dp850
g39
(dp851
g52
(dp852
g45
(dp853
g47
(dp854
g33
(dp855
g57
(dp856
g9
(dp857
g60
(dp858
g62
(lp859
(dp860
g65
I1
sg66
(lp861
S'V-I-GODAN/WA/SOK-Y/TACON'
p862
ag17
aI7469
asasssssssg62
(lp863
(dp864
g65
I1
sg66
(lp865
S'V-I-GODAN/WA/SOK-Y'
p866
ag17
aI6469
asassg99
(dp867
g62
(lp868
(dp869
g65
I1
sg66
(lp870
S'V-I-GODAN/WA/SOK-Z'
p871
ag17
aI7469
asassg17
(dp872
g62
(lp873
(dp874
g65
I1
sg66
(lp875
S'V-I-GODAN/WA/SOK-B'
p876
ag17
aI6869
asa(dp877
g65
I1
sg66
(lp878
S'V-I-GODAN/WA/SOK-B'
p879
ag15
aI8375
asasssssssssssssssssg41
(dp880
g341
(dp881
g39
(dp882
g15
(dp883
g57
(dp884
g299
(dp885
g15
(dp886
g75
(dp887
g33
(dp888
g60
(dp889
g39
(dp890
g52
(dp891
g62
(lp892
(dp893
g65
I1
sg66
(lp894
S'V-SF-ICHIDAN-Y'
p895
ag15
aI7038
asassg17
(dp896
g62
(lp897
(dp898
g65
I1
sg66
(lp899
S'V-SF-ICHIDAN-B'
p900
ag15
aI8360
asassssssssssg152
(dp901
g9
(dp902
g75
(dp903
g33
(dp904
g60
(dp905
g45
(dp906
g159
(dp907
g33
(dp908
g39
(dp909
g17
(dp910
g62
(lp911
(dp912
g65
I1
sg66
(lp913
S'V-SF-GODAN/RA-B'
p914
ag15
aI9360
asassssssssssssssg60
(dp915
g15
(dp916
g39
(dp917
g15
(dp918
g57
(dp919
g299
(dp920
g15
(dp921
g75
(dp922
g33
(dp923
g60
(dp924
g39
(dp925
g52
(dp926
g62
(lp927
(dp928
g65
I1
sg66
(lp929
S'V-NI-ICHIDAN-Y'
p930
ag15
aI6190
asassg17
(dp931
g62
(lp932
(dp933
g65
I1
sg66
(lp934
S'V-NI-ICHIDAN-B'
p935
ag15
aI5660
asassssssssssg305
(dp936
g33
(dp937
g299
(dp938
g130
(dp939
g60
(dp940
g45
(dp941
g305
(dp942
g35
(dp943
g159
(dp944
g39
(dp945
g52
(dp946
g62
(lp947
(dp948
g65
I1
sg66
(lp949
S'V-NI-KAHEN/KUR-Y'
p950
ag15
aI9360
asassssssssssssg152
(dp951
g9
(dp952
g75
(dp953
g33
(dp954
g60
(dp955
g45
(dp956
g159
(dp957
g33
(dp958
g39
(dp959
g17
(dp960
g62
(lp961
(dp962
g65
I1
sg66
(lp963
S'V-NI-GODAN/RA-B'
p964
ag15
aI9360
asasssssg844
(dp965
g33
(dp966
g45
(dp967
g41
(dp968
g9
(dp969
g305
(dp970
g39
(dp971
g52
(dp972
g62
(lp973
(dp974
g65
I1
sg66
(lp975
S'V-NI-GODAN/WA/SOK-Y'
p976
ag15
aI9360
asassg17
(dp977
g62
(lp978
(dp979
g65
I1
sg66
(lp980
S'V-NI-GODAN/WA/SOK-B'
p981
ag15
aI9360
asasssssssssssssssssssssbsbsS'_ChunkerImpl__bos_clause'
p982
g280
sb.