ccopy_reg
_reconstructor
p0
(cnlang.processor.chunker
Chunker
p1
c__builtin__
object
p2
Ntp3
Rp4
(dp5
S'_Chunker__eos_phrase'
p6
(lp7
S'EOS'
p8
aS'O'
p9
aI0
asS'_Chunker__iob_conn'
p10
(inlang.base.data.conn_table
ConnectivityTable
p11
(dp12
S'_ConnectivityTable__table'
p13
(dp14
S'I-NP'
p15
(dp16
S'I-NP'
p17
I0
sS'B-NP'
p18
I90
sVNP_I
p19
I98649
sg9
I0
ssS'B-NP'
p20
(dp21
S'I-NP'
p22
I-66
sg9
I-2
ssg9
(dp23
VI-NP
p24
I98841
sS'B-NP'
p25
I32
sg9
I-16
sssbsS'_Chunker__phrases'
p26
g0
(cnlang.base.data.phrase
Phrase
p27
g2
Ntp28
Rp29
(dp30
S'_Phrase__phrases'
p31
g0
(cnlang.base.data.trie
Trie
p32
g2
Ntp33
Rp34
(dp35
S'root'
p36
(dp37
S'A'
p38
(dp39
S'U'
p40
(dp41
S'V'
p42
(dp43
S'-'
p44
(dp45
S'S'
p46
(dp47
S'P'
p48
(dp49
S'/'
p50
(dp51
S'D'
p52
(dp53
g38
(dp54
g44
(dp55
S'Y'
p56
(dp57
S'value'
p58
(lp59
(dp60
S'count'
p61
I1
sS'data'
p62
(lp63
S'AUV-SP/DA-Y'
p64
ag9
aI0
asassg46
(dp65
g40
(dp66
S'B'
p67
(dp68
S'C'
p69
(dp70
g9
(dp71
S'N'
p72
(dp73
g58
(lp74
(dp75
g61
I1
sg62
(lp76
S'AUV-SP/DA-SUBCON'
p77
ag9
aI0
asasssssssg67
(dp78
g58
(lp79
(dp80
g61
I1
sg62
(lp81
S'AUV-SP/DA-B'
p82
ag9
aI0
asassS'Z'
p83
(dp84
g58
(lp85
(dp86
g61
I1
sg62
(lp87
S'AUV-SP/DA-Z'
p88
ag9
aI0
asasssssS'T'
p89
(dp90
g38
(dp91
S'I'
p92
(dp93
g44
(dp94
g56
(dp95
g50
(dp96
g89
(dp97
g38
(dp98
g69
(dp99
g9
(dp100
g72
(dp101
g58
(lp102
(dp103
g61
I1
sg62
(lp104
S'AUV-SP/TAI-Y/TACON'
p105
ag9
aI0
asassssssssg67
(dp106
g58
(lp107
(dp108
g61
I1
sg62
(lp109
S'AUV-SP/TAI-B'
p110
ag9
aI0
asassssg44
(dp111
g67
(dp112
g58
(lp113
(dp114
g61
I1
sg62
(lp115
S'AUV-SP/TA-B'
p116
ag9
aI0
asasssssg72
(dp117
g38
(dp118
g92
(dp119
g44
(dp120
g56
(dp121
g50
(dp122
g89
(dp123
g38
(dp124
g69
(dp125
g9
(dp126
g72
(dp127
g58
(lp128
(dp129
g61
I1
sg62
(lp130
S'AUV-SP/NAI-Y/TACON'
p131
ag9
aI0
asassssssssg67
(dp132
g58
(lp133
(dp134
g61
I1
sg62
(lp135
S'AUV-SP/NAI-B'
p136
ag9
aI0
asasssssg40
(dp137
g44
(dp138
g56
(dp139
g50
(dp140
g89
(dp141
S'E'
p142
(dp143
g69
(dp144
g9
(dp145
g72
(dp146
g58
(lp147
(dp148
g61
I1
sg62
(lp149
S'AUV-SP/NU-Y/TECON'
p150
ag9
aI0
asassssssssssssssg67
(dp151
g40
(dp152
g72
(dp153
g50
(dp154
g67
(dp155
g142
(dp156
g46
(dp157
g44
(dp158
g56
(dp159
g58
(lp160
(dp161
g61
I1
sg62
(lp162
S'AUV-BUN/BES-Y'
p163
ag9
aI0
asassg46
(dp164
g40
(dp165
g67
(dp166
g69
(dp167
g9
(dp168
g72
(dp169
g58
(lp170
(dp171
g61
I1
sg62
(lp172
S'AUV-BUN/BES-SUBCON'
p173
ag9
aI0
asasssssssssssssssS'G'
p174
(dp175
g9
(dp176
g52
(dp177
g38
(dp178
g72
(dp179
g50
(dp180
S'R'
p181
(dp182
g38
(dp183
g50
(dp184
g38
(dp185
g181
(dp186
g40
(dp187
g44
(dp188
g56
(dp189
g50
(dp190
g89
(dp191
g38
(dp192
g69
(dp193
g9
(dp194
g72
(dp195
g58
(lp196
(dp197
g61
I1
sg62
(lp198
S'AUV-GODAN/RA/ARU-Y/TACON'
p199
ag9
aI0
asassssssssg67
(dp200
g58
(lp201
(dp202
g61
I1
sg62
(lp203
S'AUV-GODAN/RA/ARU-B'
p204
ag9
aI0
asasssssssssssssssg72
(dp205
g9
(dp206
g69
(dp207
g9
(dp208
g72
(dp209
S'J'
p210
(dp211
g44
(dp212
g67
(dp213
g58
(lp214
(dp215
g61
I1
sg62
(lp216
S'AUV-NOCONJ-B'
p217
ag9
aI0
asassssssssssg58
(lp218
(dp219
g61
I1
sg62
(lp220
S'AUV'
p221
aS'I-NP'
p222
aI0
asasssg52
(dp223
g210
(dp224
g44
(dp225
g92
(dp226
g44
(dp227
g38
(dp228
g52
(dp229
g210
(dp230
g50
(dp231
g92
(dp232
g44
(dp233
g67
(dp234
g58
(lp235
(dp236
g61
I1
sg62
(lp237
S'ADJ-I-ADJ/I-B'
p238
ag9
aI0
asassg174
(dp239
g38
(dp240
g181
(dp241
g69
(dp242
g9
(dp243
g72
(dp244
g58
(lp245
(dp246
g61
I1
sg62
(lp247
S'ADJ-I-ADJ/I-GARCON'
p248
ag9
aI0
asasssssssssg38
(dp249
g40
(dp250
g9
(dp251
g44
(dp252
g38
(dp253
g58
(lp254
(dp255
g61
I1
sg62
(lp256
S'ADJ-I-ADJ/AUO-A'
p257
ag9
aI0
asassg56
(dp258
g50
(dp259
g89
(dp260
g38
(dp261
g69
(dp262
g9
(dp263
g72
(dp264
g58
(lp265
(dp266
g61
I1
sg62
(lp267
S'ADJ-I-ADJ/AUO-Y/TACON'
p268
ag9
aI0
asasssssg142
(dp269
g69
(dp270
g9
(dp271
g72
(dp272
g58
(lp273
(dp274
g61
I1
sg62
(lp275
S'ADJ-I-ADJ/AUO-Y/TECON'
p276
ag9
aI0
asassssssssg67
(dp277
g58
(lp278
(dp279
g61
I1
sg62
(lp280
S'ADJ-I-ADJ/AUO-B'
p281
ag9
aI0
asasssssssssssg58
(lp282
(dp283
g61
I1
sg62
(lp284
S'ADJ-I'
p285
aS'B-NP'
p286
aI0
asassssg42
(dp287
g44
(dp288
g38
(dp289
g52
(dp290
g42
(dp291
g69
(dp292
g58
(lp293
(dp294
g61
I1
sg62
(lp295
S'ADV-ADVC'
p296
aS'I-NP'
p297
aI0
asa(dp298
g61
I1
sg62
(lp299
S'ADV-ADVC'
p300
ag9
aI0
asasssssg174
(dp301
g142
(dp302
g72
(dp303
g58
(lp304
(dp305
g61
I1
sg62
(lp306
S'ADV-GEN'
p307
ag9
aI0
asassssssssg69
(dp308
g9
(dp309
g72
(dp310
g210
(dp311
g58
(lp312
(dp313
g61
I1
sg62
(lp314
S'CONJ'
p315
ag9
aI0
asa(dp316
g61
I1
sg62
(lp317
S'CONJ'
p318
aS'I-NP'
p319
aI0
asasssssg67
(dp320
g9
(dp321
g46
(dp322
g58
(lp323
(dp324
g61
I1
sg62
(lp325
S'BOS'
p326
ag9
aI0
asassssg142
(dp327
g9
(dp328
g46
(dp329
g58
(lp330
(dp331
g61
I1
sg62
g7
sassssg92
(dp332
S'M'
p333
(dp334
g58
(lp335
(dp336
g61
I1
sg62
(lp337
S'IM'
p338
aS'I-NP'
p339
aI0
asasssg210
(dp340
g44
(dp341
g38
(dp342
g52
(dp343
g42
(dp344
S'L'
p345
(dp346
g58
(lp347
(dp348
g61
I1
sg62
(lp349
S'J-ADVL'
p350
ag9
aI-40
asa(dp351
g61
I1
sg62
(lp352
S'J-ADVL'
p353
aS'I-NP'
p354
aI50
asasssssg210
(dp355
g69
(dp356
g9
(dp357
g72
(dp358
g210
(dp359
g58
(lp360
(dp361
g61
I1
sg62
(lp362
S'J-JCONJ'
p363
ag9
aI0
asa(dp364
g61
I1
sg62
(lp365
S'J-JCONJ'
p366
aS'I-NP'
p367
aI0
asasssssg67
(dp368
g58
(lp369
(dp370
g61
I1
sg62
(lp371
S'J-JB'
p372
ag9
aI-45
asa(dp373
g61
I1
sg62
(lp374
S'J-JB'
p375
aS'I-NP'
p376
aI135
asassS'F'
p377
(dp378
g50
(dp379
g210
(dp380
S'H'
p381
(dp382
g50
(dp383
g210
(dp384
g46
(dp385
g58
(lp386
(dp387
g61
I1
sg62
(lp388
S'J-JF/JH/JS'
p389
ag9
aI0
asasssssssg58
(lp390
(dp391
g61
I1
sg62
(lp392
S'J-JF'
p393
aS'I-NP'
p394
aI31
asa(dp395
g61
I1
sg62
(lp396
S'J-JF'
p397
ag9
aI-31
asassg381
(dp398
g58
(lp399
(dp400
g61
I1
sg62
(lp401
S'J-JH'
p402
aS'I-NP'
p403
aI-1
asa(dp404
g61
I1
sg62
(lp405
S'J-JH'
p406
ag9
aI1
asassS'K'
p407
(dp408
g44
(dp409
S'Q'
p410
(dp411
g58
(lp412
(dp413
g61
I1
sg62
(lp414
S'J-JK-Q'
p415
ag9
aI0
asassg69
(dp416
g9
(dp417
g345
(dp418
g58
(lp419
(dp420
g61
I1
sg62
(lp421
S'J-JK-COL'
p422
ag9
aI-29
asa(dp423
g61
I1
sg62
(lp424
S'J-JK-COL'
p425
aS'I-NP'
p426
aI29
asassssg174
(dp427
g142
(dp428
g72
(dp429
g58
(lp430
(dp431
g61
I1
sg62
(lp432
S'J-JK-GEN'
p433
aS'I-NP'
p434
aI79
asa(dp435
g61
I1
sg62
(lp436
S'J-JK-GEN'
p437
ag9
aI-79
asassssssg46
(dp438
g58
(lp439
(dp440
g61
I1
sg62
(lp441
S'J-JS'
p442
aS'I-NP'
p443
aI0
asasssg89
(dp444
g345
(dp445
g58
(lp446
(dp447
g61
I1
sg62
(lp448
S'J-TL'
p449
aS'I-NP'
p450
aI-31
asa(dp451
g61
I1
sg62
(lp452
S'J-TL'
p453
ag9
aI31
asasssssg72
(dp454
g44
(dp455
g38
(dp456
g52
(dp457
g42
(dp458
g48
(dp459
g58
(lp460
(dp461
g61
I1
sg62
(lp462
S'N-ADVP'
p463
aS'I-NP'
p464
aI0
asa(dp465
g61
I1
sg62
(lp466
S'N-ADVP'
p467
aS'B-NP'
p468
aI-16
asa(dp469
g61
I1
sg62
(lp470
S'N-ADVP'
p471
ag9
aI33
asasssssg48
(dp472
g181
(dp473
g9
(dp474
g48
(dp475
g72
(dp476
g44
(dp477
g38
(dp478
g181
(dp479
g72
(dp480
g44
(dp481
g69
(dp482
g9
(dp483
g72
(dp484
g58
(lp485
(dp486
g61
I1
sg62
(lp487
S'N-PROPN-ARN-CON'
p488
aS'B-NP'
p489
aI0
asa(dp490
g61
I1
sg62
(lp491
S'N-PROPN-ARN-CON'
p492
aS'I-NP'
p493
aI0
asassssg174
(dp494
g142
(dp495
g72
(dp496
g58
(lp497
(dp498
g61
I1
sg62
(lp499
S'N-PROPN-ARN-GEN'
p500
aS'B-NP'
p501
aI0
asa(dp502
g61
I1
sg62
(lp503
S'N-PROPN-ARN-GEN'
p504
aS'I-NP'
p505
aI0
asa(dp506
g61
I1
sg62
(lp507
S'N-PROPN-ARN-GEN'
p508
ag9
aI0
asassssssssg48
(dp509
g142
(dp510
g181
(dp511
g72
(dp512
g44
(dp513
g377
(dp514
g38
(dp515
g333
(dp516
g72
(dp517
g58
(lp518
(dp519
g61
I1
sg62
(lp520
S'N-PROPN-PERN-FAMN'
p521
aS'I-NP'
p522
aI0
asa(dp523
g61
I1
sg62
(lp524
S'N-PROPN-PERN-FAMN'
p525
aS'B-NP'
p526
aI0
asassssg46
(dp527
g89
(dp528
g72
(dp529
g58
(lp530
(dp531
g61
I1
sg62
(lp532
S'N-PROPN-PERN-FSTN'
p533
aS'I-NP'
p534
aI0
asa(dp535
g61
I1
sg62
(lp536
S'N-PROPN-PERN-FSTN'
p537
aS'B-NP'
p538
aI0
asassssssssssg9
(dp539
g181
(dp540
g72
(dp541
g58
(lp542
(dp543
g61
I1
sg62
(lp544
S'N-PROPN-ORN'
p545
aS'I-NP'
p546
aI0
asa(dp547
g61
I1
sg62
(lp548
S'N-PROPN-ORN'
p549
aS'B-NP'
p550
aI0
asassssg174
(dp551
g142
(dp552
g72
(dp553
g58
(lp554
(dp555
g61
I1
sg62
(lp556
S'N-PROPN-GEN'
p557
aS'I-NP'
p558
aI0
asa(dp559
g61
I1
sg62
(lp560
S'N-PROPN-GEN'
p561
aS'B-NP'
p562
aI0
asasssssssg72
(dp563
g44
(dp564
g174
(dp565
g142
(dp566
g72
(dp567
g58
(lp568
(dp569
g61
I1
sg62
(lp570
S'N-PRON-GEN'
p571
aS'B-NP'
p572
aI0
asa(dp573
g61
I1
sg62
(lp574
S'N-PRON-GEN'
p575
ag9
aI0
asasssssssssg46
(dp576
g38
(dp577
g69
(dp578
g58
(lp579
(dp580
g61
I1
sg62
(lp581
S'N-SAC'
p582
aS'I-NP'
p583
aI-30
asa(dp584
g61
I1
sg62
(lp585
S'N-SAC'
p586
aS'B-NP'
p587
aI3
asa(dp588
g61
I1
sg62
(lp589
S'N-SAC'
p590
ag9
aI34
asasssg377
(dp591
g44
(dp592
g38
(dp593
g181
(dp594
g72
(dp595
g58
(lp596
(dp597
g61
I1
sg62
(lp598
S'N-SF-ARN'
p599
aS'I-NP'
p600
aI0
asa(dp601
g61
I1
sg62
(lp602
S'N-SF-ARN'
p603
ag9
aI0
asasssg52
(dp604
g42
(dp605
g48
(dp606
g58
(lp607
(dp608
g61
I1
sg62
(lp609
S'N-SF-ADVP'
p610
aS'I-NP'
p611
aI0
asa(dp612
g61
I1
sg62
(lp613
S'N-SF-ADVP'
p614
ag9
aI0
asasssssg69
(dp615
g46
(dp616
g40
(dp617
g377
(dp618
g58
(lp619
(dp620
g61
I1
sg62
(lp621
S'N-SF-CSUF'
p622
aS'I-NP'
p623
aI-16
asa(dp624
g61
I1
sg62
(lp625
S'N-SF-CSUF'
p626
ag9
aI16
asasssssg174
(dp627
g142
(dp628
g72
(dp629
g58
(lp630
(dp631
g61
I1
sg62
(lp632
S'N-SF-GEN'
p633
aS'I-NP'
p634
aI-16
asa(dp635
g61
I1
sg62
(lp636
S'N-SF-GEN'
p637
ag9
aI16
asassssg72
(dp638
g38
(dp639
g38
(dp640
g52
(dp641
g210
(dp642
g46
(dp643
g89
(dp644
g142
(dp645
g333
(dp646
g58
(lp647
(dp648
g61
I1
sg62
(lp649
S'N-SF-NAADJSTEM'
p650
ag9
aI0
asa(dp651
g61
I1
sg62
(lp652
S'N-SF-NAADJSTEM'
p653
aS'I-NP'
p654
aI0
asassssssssssg48
(dp655
g142
(dp656
g181
(dp657
g72
(dp658
g58
(lp659
(dp660
g61
I1
sg62
(lp661
S'N-SF-PERN'
p662
aS'I-NP'
p663
aI0
asasssssg46
(dp664
g38
(dp665
g69
(dp666
g58
(lp667
(dp668
g61
I1
sg62
(lp669
S'N-SF-SAC'
p670
aS'I-NP'
p671
aI0
asasssg48
(dp672
g58
(lp673
(dp674
g61
I1
sg62
(lp675
S'N-SF-SP'
p676
ag9
aI0
asassssssg174
(dp677
g142
(dp678
g72
(dp679
g58
(lp680
(dp681
g61
I1
sg62
(lp682
S'N-GEN'
p683
aS'I-NP'
p684
aI-53
asa(dp685
g61
I1
sg62
(lp686
S'N-GEN'
p687
aS'B-NP'
p688
aI-1
asa(dp689
g61
I1
sg62
(lp690
S'N-GEN'
p691
ag9
aI48
asassssg72
(dp692
g38
(dp693
g38
(dp694
g52
(dp695
g210
(dp696
g46
(dp697
g89
(dp698
g142
(dp699
g333
(dp700
g58
(lp701
(dp702
g61
I1
sg62
(lp703
S'N-NAADJSTEM'
p704
aS'I-NP'
p705
aI1
asa(dp706
g61
I1
sg62
(lp707
S'N-NAADJSTEM'
p708
ag9
aI-1
asa(dp709
g61
I1
sg62
(lp710
S'N-NAADJSTEM'
p711
aS'B-NP'
p712
aI1
asassssssssg92
(dp713
g58
(lp714
(dp715
g61
I1
sg62
(lp716
S'N-NAI'
p717
aS'I-NP'
p718
aI0
asasssg92
(dp719
g44
(dp720
g38
(dp721
g40
(dp722
g42
(dp723
g46
(dp724
g89
(dp725
g142
(dp726
g333
(dp727
g58
(lp728
(dp729
g61
I1
sg62
(lp730
S'N-NI-AUVSTEM'
p731
aS'I-NP'
p732
aI0
asa(dp733
g61
I1
sg62
(lp734
S'N-NI-AUVSTEM'
p735
ag9
aI0
asasssssssg52
(dp736
g42
(dp737
g48
(dp738
g58
(lp739
(dp740
g61
I1
sg62
(lp741
S'N-NI-ADVP'
p742
ag9
aI4
asa(dp743
g61
I1
sg62
(lp744
S'N-NI-ADVP'
p745
aS'I-NP'
p746
aI-4
asasssssg174
(dp747
g142
(dp748
g72
(dp749
g58
(lp750
(dp751
g61
I1
sg62
(lp752
S'N-NI-GEN'
p753
ag9
aI5
asa(dp754
g61
I1
sg62
(lp755
S'N-NI-GEN'
p756
aS'I-NP'
p757
aI-5
asassssssg40
(dp758
g58
(lp759
(dp760
g61
I1
sg62
(lp761
S'N-NU'
p762
aS'I-NP'
p763
aI-61
asa(dp764
g61
I1
sg62
(lp765
S'N-NU'
p766
aS'B-NP'
p767
aI0
asa(dp768
g61
I1
sg62
(lp769
S'N-NU'
p770
ag9
aI0
asasssssg48
(dp771
g44
(dp772
g72
(dp773
g69
(dp774
g58
(lp775
(dp776
g61
I1
sg62
(lp777
S'P-NC'
p778
aS'I-NP'
p779
aI0
asa(dp780
g61
I1
sg62
(lp781
S'P-NC'
p782
aS'B-NP'
p783
aI0
asa(dp784
g61
I1
sg62
(lp785
S'P-NC'
p786
ag9
aI0
asassg40
(dp787
g69
(dp788
g58
(lp789
(dp790
g61
I1
sg62
(lp791
S'P-NUC'
p792
aS'I-NP'
p793
aI0
asa(dp794
g61
I1
sg62
(lp795
S'P-NUC'
p796
aS'B-NP'
p797
aI0
asassssssg46
(dp798
g56
(dp799
g44
(dp800
g38
(dp801
g345
(dp802
g58
(lp803
(dp804
g61
I1
sg62
(lp805
S'SY-AL'
p806
ag9
aI0
asasssg69
(dp807
g9
(dp808
g333
(dp809
g58
(lp810
(dp811
g61
I1
sg62
(lp812
S'SY-COM'
p813
ag9
aI-125
asa(dp814
g61
I1
sg62
(lp815
S'SY-COM'
p816
aS'I-NP'
p817
aI125
asassssg67
(dp818
g181
(dp819
g38
(dp820
g58
(lp821
(dp822
g61
I1
sg62
(lp823
S'SY-BRA'
p824
ag9
aI-125
asa(dp825
g61
I1
sg62
(lp826
S'SY-BRA'
p827
aS'I-NP'
p828
aI4
asa(dp829
g61
I1
sg62
(lp830
S'SY-BRA'
p831
aS'B-NP'
p832
aI15
asassssg174
(dp833
g142
(dp834
g72
(dp835
g58
(lp836
(dp837
g61
I1
sg62
(lp838
S'SY-GEN'
p839
ag9
aI-138
asa(dp840
g61
I1
sg62
(lp841
S'SY-GEN'
p842
aS'I-NP'
p843
aI138
asassssg407
(dp844
g142
(dp845
g89
(dp846
g58
(lp847
(dp848
g61
I1
sg62
(lp849
S'SY-KET'
p850
ag9
aI-21
asa(dp851
g61
I1
sg62
(lp852
S'SY-KET'
p853
aS'I-NP'
p854
aI21
asassssg48
(dp855
g142
(dp856
g58
(lp857
(dp858
g61
I1
sg62
(lp859
S'SY-PE'
p860
ag9
aI0
asasssg46
(dp861
g48
(dp862
g69
(dp863
g58
(lp864
(dp865
g61
I1
sg62
(lp866
S'SY-SPC'
p867
ag9
aI0
asasssssssg89
(dp868
g58
(lp869
(dp870
g61
I1
sg62
(lp871
g89
aS'B-NP'
p872
aI0
asa(dp873
g61
I1
sg62
(lp874
g89
aS'I-NP'
p875
aI0
asa(dp876
g61
I1
sg62
(lp877
g89
ag9
aI0
asassg42
(dp878
g44
(dp879
g92
(dp880
g44
(dp881
g92
(dp882
g69
(dp883
g381
(dp884
g92
(dp885
g52
(dp886
g38
(dp887
g72
(dp888
g44
(dp889
g56
(dp890
g58
(lp891
(dp892
g61
I1
sg62
(lp893
S'V-I-ICHIDAN-Y'
p894
ag9
aI0
asassg83
(dp895
g58
(lp896
(dp897
g61
I1
sg62
(lp898
S'V-I-ICHIDAN-Z'
p899
ag9
aI0
asassg67
(dp900
g58
(lp901
(dp902
g61
I1
sg62
(lp903
S'V-I-ICHIDAN-B'
p904
ag9
aI0
asassssssssssg46
(dp905
g38
(dp906
g381
(dp907
g142
(dp908
g72
(dp909
g50
(dp910
g46
(dp911
g40
(dp912
g181
(dp913
g44
(dp914
g56
(dp915
g58
(lp916
(dp917
g61
I1
sg62
(lp918
S'V-I-SAHEN/SUR-Y'
p919
ag9
aI0
asassg83
(dp920
g58
(lp921
(dp922
g61
I1
sg62
(lp923
S'V-I-SAHEN/SUR-Z'
p924
ag9
aI0
asassg181
(dp925
g142
(dp926
g181
(dp927
g40
(dp928
g69
(dp929
g9
(dp930
g72
(dp931
g58
(lp932
(dp933
g61
I1
sg62
(lp934
S'V-I-SAHEN/SUR-RERUCON'
p935
ag9
aI0
asassssssssg67
(dp936
g40
(dp937
g72
(dp938
g50
(dp939
g67
(dp940
g58
(lp941
(dp942
g61
I1
sg62
(lp943
S'V-I-SAHEN/SUR-BUN/B'
p944
ag9
aI0
asasssssg58
(lp945
(dp946
g61
I1
sg62
(lp947
S'V-I-SAHEN/SUR-B'
p948
ag9
aI0
asassssssssssssg174
(dp949
g9
(dp950
g52
(dp951
g38
(dp952
g72
(dp953
g50
(dp954
g67
(dp955
g38
(dp956
g44
(dp957
g83
(dp958
g58
(lp959
(dp960
g61
I1
sg62
(lp961
S'V-I-GODAN/BA-Z'
p962
ag9
aI0
asasssssg174
(dp963
g38
(dp964
g44
(dp965
g56
(dp966
g50
(dp967
g89
(dp968
g38
(dp969
g69
(dp970
g9
(dp971
g72
(dp972
g58
(lp973
(dp974
g61
I1
sg62
(lp975
S'V-I-GODAN/GA-Y/TACON'
p976
ag9
aI0
asasssssssssssg407
(dp977
g38
(dp978
g50
(dp979
g92
(dp980
g44
(dp981
g56
(dp982
g50
(dp983
g89
(dp984
g38
(dp985
g69
(dp986
g9
(dp987
g72
(dp988
g58
(lp989
(dp990
g61
I1
sg62
(lp991
S'V-I-GODAN/KA/I-Y/TACON'
p992
ag9
aI0
asasssssssg58
(lp993
(dp994
g61
I1
sg62
(lp995
S'V-I-GODAN/KA/I-Y'
p996
ag9
aI0
asasssssssg333
(dp997
g38
(dp998
g44
(dp999
g56
(dp1000
g50
(dp1001
g89
(dp1002
g38
(dp1003
g69
(dp1004
g9
(dp1005
g72
(dp1006
g58
(lp1007
(dp1008
g61
I1
sg62
(lp1009
S'V-I-GODAN/MA-Y/TACON'
p1010
ag9
aI0
asassssssssg83
(dp1011
g58
(lp1012
(dp1013
g61
I1
sg62
(lp1014
S'V-I-GODAN/MA-Z'
p1015
ag9
aI0
asassg67
(dp1016
g58
(lp1017
(dp1018
g61
I1
sg62
(lp1019
S'V-I-GODAN/MA-B'
p1020
ag9
aI0
asasssssg46
(dp1021
g38
(dp1022
g44
(dp1023
g56
(dp1024
g58
(lp1025
(dp1026
g61
I1
sg62
(lp1027
S'V-I-GODAN/SA-Y'
p1028
ag9
aI0
asassg83
(dp1029
g58
(lp1030
(dp1031
g61
I1
sg62
(lp1032
S'V-I-GODAN/SA-Z'
p1033
ag9
aI0
asassg181
(dp1034
g50
(dp1035
g142
(dp1036
g58
(lp1037
(dp1038
g61
I1
sg62
(lp1039
S'V-I-GODAN/SA-R/E'
p1040
ag9
aI0
asassssg67
(dp1041
g58
(lp1042
(dp1043
g61
I1
sg62
(lp1044
S'V-I-GODAN/SA-B'
p1045
ag9
aI0
asasssssg181
(dp1046
g38
(dp1047
g44
(dp1048
g56
(dp1049
g50
(dp1050
g89
(dp1051
g38
(dp1052
g69
(dp1053
g9
(dp1054
g72
(dp1055
g58
(lp1056
(dp1057
g61
I1
sg62
(lp1058
S'V-I-GODAN/RA-Y/TACON'
p1059
ag9
aI0
asasssssssg58
(lp1060
(dp1061
g61
I1
sg62
(lp1062
S'V-I-GODAN/RA-Y'
p1063
ag9
aI0
asassg67
(dp1064
g58
(lp1065
(dp1066
g61
I1
sg62
(lp1067
S'V-I-GODAN/RA-B'
p1068
ag9
aI0
asassg83
(dp1069
g58
(lp1070
(dp1071
g61
I1
sg62
(lp1072
S'V-I-GODAN/RA-Z'
p1073
ag9
aI0
asasssssg89
(dp1074
g38
(dp1075
g44
(dp1076
g83
(dp1077
g58
(lp1078
(dp1079
g61
I1
sg62
(lp1080
S'V-I-GODAN/TA-Z'
p1081
ag9
aI0
asasssssS'W'
p1082
(dp1083
g38
(dp1084
g50
(dp1085
g46
(dp1086
g9
(dp1087
g407
(dp1088
g44
(dp1089
g56
(dp1090
g50
(dp1091
g89
(dp1092
g38
(dp1093
g69
(dp1094
g9
(dp1095
g72
(dp1096
g58
(lp1097
(dp1098
g61
I1
sg62
(lp1099
S'V-I-GODAN/WA/SOK-Y/TACON'
p1100
ag9
aI0
asasssssssg58
(lp1101
(dp1102
g61
I1
sg62
(lp1103
S'V-I-GODAN/WA/SOK-Y'
p1104
ag9
aI0
asassg67
(dp1105
g58
(lp1106
(dp1107
g61
I1
sg62
(lp1108
S'V-I-GODAN/WA/SOK-B'
p1109
ag9
aI0
asassg83
(dp1110
g58
(lp1111
(dp1112
g61
I1
sg62
(lp1113
S'V-I-GODAN/WA/SOK-Z'
p1114
ag9
aI0
asassssssssssssssssg58
(lp1115
(dp1116
g61
I1
sg62
(lp1117
S'V-I'
p1118
aS'I-NP'
p1119
aI-121
asa(dp1120
g61
I1
sg62
(lp1121
S'V-I'
p1122
aS'B-NP'
p1123
aI121
asassg46
(dp1124
g377
(dp1125
g44
(dp1126
g92
(dp1127
g69
(dp1128
g381
(dp1129
g92
(dp1130
g52
(dp1131
g38
(dp1132
g72
(dp1133
g44
(dp1134
g56
(dp1135
g58
(lp1136
(dp1137
g61
I1
sg62
(lp1138
S'V-SF-ICHIDAN-Y'
p1139
ag9
aI0
asassg83
(dp1140
g58
(lp1141
(dp1142
g61
I1
sg62
(lp1143
S'V-SF-ICHIDAN-Z'
p1144
ag9
aI0
asassg67
(dp1145
g58
(lp1146
(dp1147
g61
I1
sg62
(lp1148
S'V-SF-ICHIDAN-B'
p1149
ag9
aI0
asassssssssssg174
(dp1150
g9
(dp1151
g52
(dp1152
g38
(dp1153
g72
(dp1154
g50
(dp1155
g181
(dp1156
g38
(dp1157
g44
(dp1158
g67
(dp1159
g58
(lp1160
(dp1161
g61
I1
sg62
(lp1162
S'V-SF-GODAN/RA-B'
p1163
ag9
aI0
asassssssssssssg58
(lp1164
(dp1165
g61
I1
sg62
(lp1166
S'V-SF'
p1167
aS'I-NP'
p1168
aI0
asasssg72
(dp1169
g92
(dp1170
g44
(dp1171
g92
(dp1172
g69
(dp1173
g381
(dp1174
g92
(dp1175
g52
(dp1176
g38
(dp1177
g72
(dp1178
g44
(dp1179
g56
(dp1180
g58
(lp1181
(dp1182
g61
I1
sg62
(lp1183
S'V-NI-ICHIDAN-Y'
p1184
ag9
aI0
asassg67
(dp1185
g58
(lp1186
(dp1187
g61
I1
sg62
(lp1188
S'V-NI-ICHIDAN-B'
p1189
ag9
aI0
asassg83
(dp1190
g58
(lp1191
(dp1192
g61
I1
sg62
(lp1193
S'V-NI-ICHIDAN-Z'
p1194
ag9
aI0
asassssssssssg407
(dp1195
g38
(dp1196
g381
(dp1197
g142
(dp1198
g72
(dp1199
g50
(dp1200
g407
(dp1201
g40
(dp1202
g181
(dp1203
g44
(dp1204
g56
(dp1205
g58
(lp1206
(dp1207
g61
I1
sg62
(lp1208
S'V-NI-KAHEN/KUR-Y'
p1209
ag9
aI0
asassssssssssssg174
(dp1210
g9
(dp1211
g52
(dp1212
g38
(dp1213
g72
(dp1214
g50
(dp1215
g407
(dp1216
g38
(dp1217
g50
(dp1218
g92
(dp1219
g44
(dp1220
g56
(dp1221
g58
(lp1222
(dp1223
g61
I1
sg62
(lp1224
S'V-NI-GODAN/KA/I-Y'
p1225
ag9
aI0
asassssg46
(dp1226
g9
(dp1227
g407
(dp1228
g44
(dp1229
g56
(dp1230
g50
(dp1231
g89
(dp1232
g38
(dp1233
g69
(dp1234
g9
(dp1235
g72
(dp1236
g58
(lp1237
(dp1238
g61
I1
sg62
(lp1239
S'V-NI-GODAN/KA/SOK-Y/TACON'
p1240
ag9
aI0
asasssssssssssssssg181
(dp1241
g38
(dp1242
g44
(dp1243
g56
(dp1244
g58
(lp1245
(dp1246
g61
I1
sg62
(lp1247
S'V-NI-GODAN/RA-Y'
p1248
ag9
aI0
asassg83
(dp1249
g58
(lp1250
(dp1251
g61
I1
sg62
(lp1252
S'V-NI-GODAN/RA-Z'
p1253
ag9
aI0
asassg67
(dp1254
g58
(lp1255
(dp1256
g61
I1
sg62
(lp1257
S'V-NI-GODAN/RA-B'
p1258
ag9
aI0
asasssssg1082
(dp1259
g38
(dp1260
g50
(dp1261
g46
(dp1262
g9
(dp1263
g407
(dp1264
g44
(dp1265
g56
(dp1266
g58
(lp1267
(dp1268
g61
I1
sg62
(lp1269
S'V-NI-GODAN/WA/SOK-Y'
p1270
ag9
aI0
asassg67
(dp1271
g58
(lp1272
(dp1273
g61
I1
sg62
(lp1274
S'V-NI-GODAN/WA/SOK-B'
p1275
ag9
aI0
asassssssssssssssssg58
(lp1276
(dp1277
g61
I1
sg62
(lp1278
S'V-NI'
p1279
aS'I-NP'
p1280
aI0
asassssssbsbsS'_Chunker__bos_phrase'
p1281
g325
sb.