ccopy_reg
_reconstructor
p0
(cnlang.processor.chunker
Chunker
p1
c__builtin__
object
p2
Ntp3
Rp4
(dp5
S'_Chunker__eos_clause'
p6
(lp7
S'EOS'
p8
aS'O'
p9
aI0
asS'_Chunker__iob_conn'
p10
(inlang.base.data.conn_table
ConnectivityTable
p11
(dp12
S'_ConnectivityTable__table'
p13
(dp14
S'I'
p15
(dp16
g15
I1766
sS'B'
p17
I3769
sg9
I4223
ssg17
(dp18
g15
I157
sg17
I3317
sg9
I4462
ssg9
(dp19
g17
I1213
sg9
I3531
sssbsS'_Chunker__clauses'
p20
g0
(cnlang.base.data.clause
Clause
p21
g2
Ntp22
Rp23
(dp24
S'_Clause__clauses'
p25
g0
(cnlang.base.data.trie
Trie
p26
g2
Ntp27
Rp28
(dp29
S'root'
p30
(dp31
S'A'
p32
(dp33
S'U'
p34
(dp35
S'V'
p36
(dp37
S'-'
p38
(dp39
S'S'
p40
(dp41
S'P'
p42
(dp43
S'/'
p44
(dp45
S'N'
p46
(dp47
g32
(dp48
g15
(dp49
g38
(dp50
S'Y'
p51
(dp52
g44
(dp53
S'T'
p54
(dp55
g32
(dp56
S'C'
p57
(dp58
g9
(dp59
g46
(dp60
S'value'
p61
(lp62
(dp63
S'count'
p64
I1
sS'data'
p65
(lp66
S'AUV-SP/NAI-Y/TACON'
p67
ag15
aI10260
asassssssssg17
(dp68
g61
(lp69
(dp70
g64
I1
sg65
(lp71
S'AUV-SP/NAI-B'
p72
ag15
aI7938
asasssssg34
(dp73
g38
(dp74
g51
(dp75
g44
(dp76
g54
(dp77
S'E'
p78
(dp79
g57
(dp80
g9
(dp81
g46
(dp82
g61
(lp83
(dp84
g64
I1
sg65
(lp85
S'AUV-SP/NU-Y/TECON'
p86
ag15
aI8675
asasssssssssssg54
(dp87
g32
(dp88
g15
(dp89
g38
(dp90
g51
(dp91
g44
(dp92
g54
(dp93
g32
(dp94
g57
(dp95
g9
(dp96
g46
(dp97
g61
(lp98
(dp99
g64
I1
sg65
(lp100
S'AUV-SP/TAI-Y/TACON'
p101
ag15
aI10260
asassssssssssg38
(dp102
g17
(dp103
g61
(lp104
(dp105
g64
I1
sg65
(lp106
S'AUV-SP/TA-B'
p107
ag15
aI5173
asasssssS'D'
p108
(dp109
g32
(dp110
g38
(dp111
g51
(dp112
g61
(lp113
(dp114
g64
I1
sg65
(lp115
S'AUV-SP/DA-Y'
p116
ag15
aI7938
asassg40
(dp117
g34
(dp118
g17
(dp119
g57
(dp120
g9
(dp121
g46
(dp122
g61
(lp123
(dp124
g64
I1
sg65
(lp125
S'AUV-SP/DA-SUBCON'
p126
ag15
aI9260
asasssssssg17
(dp127
g61
(lp128
(dp129
g64
I1
sg65
(lp130
S'AUV-SP/DA-B'
p131
ag15
aI10260
asassS'Z'
p132
(dp133
g61
(lp134
(dp135
g64
I1
sg65
(lp136
S'AUV-SP/DA-Z'
p137
ag15
aI10260
asassssssssg17
(dp138
g34
(dp139
g46
(dp140
g44
(dp141
g17
(dp142
g78
(dp143
g40
(dp144
g38
(dp145
g51
(dp146
g61
(lp147
(dp148
g64
I1
sg65
(lp149
S'AUV-BUN/BES-Y'
p150
ag15
aI10260
asassssssssssS'G'
p151
(dp152
g9
(dp153
g108
(dp154
g32
(dp155
g46
(dp156
g44
(dp157
S'R'
p158
(dp159
g32
(dp160
g44
(dp161
g32
(dp162
g158
(dp163
g34
(dp164
g38
(dp165
g51
(dp166
g44
(dp167
g54
(dp168
g32
(dp169
g57
(dp170
g9
(dp171
g46
(dp172
g61
(lp173
(dp174
g64
I1
sg65
(lp175
S'AUV-GODAN/RA/ARU-Y/TACON'
p176
ag15
aI10260
asassssssssg17
(dp177
g61
(lp178
(dp179
g64
I1
sg65
(lp180
S'AUV-GODAN/RA/ARU-B'
p181
ag15
aI10260
asasssssssssssssssg46
(dp182
g9
(dp183
g57
(dp184
g9
(dp185
g46
(dp186
S'J'
p187
(dp188
g38
(dp189
g17
(dp190
g61
(lp191
(dp192
g64
I1
sg65
(lp193
S'AUV-NOCONJ-B'
p194
ag15
aI10260
asassssssssssssg108
(dp195
g187
(dp196
g38
(dp197
g15
(dp198
g38
(dp199
g32
(dp200
g108
(dp201
g187
(dp202
g44
(dp203
g15
(dp204
g38
(dp205
g151
(dp206
g32
(dp207
g158
(dp208
g57
(dp209
g9
(dp210
g46
(dp211
g61
(lp212
(dp213
g64
I1
sg65
(lp214
S'ADJ-I-ADJ/I-GARCON'
p215
ag17
aI9369
asasssssssssg32
(dp216
g34
(dp217
g9
(dp218
g38
(dp219
g32
(dp220
g61
(lp221
(dp222
g64
I1
sg65
(lp223
S'ADJ-I-ADJ/AUO-A'
p224
ag17
aI9369
asassg51
(dp225
g44
(dp226
g54
(dp227
g32
(dp228
g57
(dp229
g9
(dp230
g46
(dp231
g61
(lp232
(dp233
g64
I1
sg65
(lp234
S'ADJ-I-ADJ/AUO-Y/TACON'
p235
ag17
aI7784
asasssssg78
(dp236
g57
(dp237
g9
(dp238
g46
(dp239
g61
(lp240
(dp241
g64
I1
sg65
(lp242
S'ADJ-I-ADJ/AUO-Y/TECON'
p243
ag17
aI9369
asassssssssg17
(dp244
g61
(lp245
(dp246
g64
I1
sg65
(lp247
S'ADJ-I-ADJ/AUO-B'
p248
ag17
aI7784
asassssssssssssssg36
(dp249
g38
(dp250
g32
(dp251
g108
(dp252
g36
(dp253
g57
(dp254
g61
(lp255
(dp256
g64
I1
sg65
(lp257
S'ADV-ADVC'
p258
ag17
aI6784
asasssssg151
(dp259
g78
(dp260
g46
(dp261
g61
(lp262
(dp263
g64
I1
sg65
(lp264
S'ADV-GEN'
p265
ag17
aI8369
asassssssssg57
(dp266
g9
(dp267
g46
(dp268
g187
(dp269
g61
(lp270
(dp271
g64
I1
sg65
(lp272
S'CONJ'
p273
ag17
aI7784
asasssssg17
(dp274
g9
(dp275
g40
(dp276
g61
(lp277
(dp278
g64
I1
sg65
(lp279
S'BOS'
p280
ag9
aI0
asassssg78
(dp281
g9
(dp282
g40
(dp283
g61
(lp284
(dp285
g64
I1
sg65
g7
sassssg187
(dp286
g38
(dp287
g32
(dp288
g108
(dp289
g36
(dp290
S'L'
p291
(dp292
g61
(lp293
(dp294
g64
I1
sg65
(lp295
S'J-ADVL'
p296
ag15
aI8260
asasssssg187
(dp297
S'H'
p298
(dp299
g61
(lp300
(dp301
g64
I1
sg65
(lp302
S'J-JH'
p303
ag15
aI6938
asassS'K'
p304
(dp305
g38
(dp306
S'Q'
p307
(dp308
g61
(lp309
(dp310
g64
I1
sg65
(lp311
S'J-JK-Q'
p312
ag15
aI6453
asassg57
(dp313
g9
(dp314
g291
(dp315
g61
(lp316
(dp317
g64
I1
sg65
(lp318
S'J-JK-COL'
p319
ag15
aI6938
asassssg151
(dp320
g78
(dp321
g46
(dp322
g61
(lp323
(dp324
g64
I1
sg65
(lp325
S'J-JK-GEN'
p326
ag15
aI3080
asassssssg17
(dp327
g61
(lp328
(dp329
g64
I1
sg65
(lp330
S'J-JB'
p331
ag15
aI4737
asassg57
(dp332
g9
(dp333
g46
(dp334
g187
(dp335
g61
(lp336
(dp337
g64
I1
sg65
(lp338
S'J-JCONJ'
p339
ag15
aI4801
asasssssS'F'
p340
(dp341
g44
(dp342
g187
(dp343
g298
(dp344
g44
(dp345
g187
(dp346
g40
(dp347
g61
(lp348
(dp349
g64
I1
sg65
(lp350
S'J-JF/JH/JS'
p351
ag15
aI10260
asasssssssg61
(lp352
(dp353
g64
I1
sg65
(lp354
S'J-JF'
p355
ag15
aI6453
asasssg54
(dp356
g291
(dp357
g61
(lp358
(dp359
g64
I1
sg65
(lp360
S'J-TL'
p361
ag15
aI4505
asasssssg46
(dp362
g38
(dp363
g32
(dp364
g108
(dp365
g36
(dp366
g42
(dp367
g61
(lp368
(dp369
g64
I1
sg65
(lp370
S'N-ADVP'
p371
ag17
aI5669
asa(dp372
g64
I1
sg65
(lp373
S'N-ADVP'
p374
ag15
aI7053
asasssssg42
(dp375
g158
(dp376
g9
(dp377
g42
(dp378
g46
(dp379
g38
(dp380
g32
(dp381
g158
(dp382
g46
(dp383
g38
(dp384
g57
(dp385
g9
(dp386
g46
(dp387
g61
(lp388
(dp389
g64
I1
sg65
(lp390
S'N-PROPN-ARN-CON'
p391
ag17
aI9369
asassssg151
(dp392
g78
(dp393
g46
(dp394
g61
(lp395
(dp396
g64
I1
sg65
(lp397
S'N-PROPN-ARN-GEN'
p398
ag17
aI6619
asa(dp399
g64
I1
sg65
(lp400
S'N-PROPN-ARN-GEN'
p401
ag15
aI7688
asassssssssg42
(dp402
g78
(dp403
g158
(dp404
g46
(dp405
g38
(dp406
g340
(dp407
g32
(dp408
S'M'
p409
(dp410
g46
(dp411
g61
(lp412
(dp413
g64
I1
sg65
(lp414
S'N-PROPN-PERN-FAMN'
p415
ag17
aI6884
asa(dp416
g64
I1
sg65
(lp417
S'N-PROPN-PERN-FAMN'
p418
ag15
aI10160
asassssg40
(dp419
g54
(dp420
g46
(dp421
g61
(lp422
(dp423
g64
I1
sg65
(lp424
S'N-PROPN-PERN-FSTN'
p425
ag15
aI9260
asassssssssssg9
(dp426
g158
(dp427
g46
(dp428
g61
(lp429
(dp430
g64
I1
sg65
(lp431
S'N-PROPN-ORN'
p432
ag17
aI6047
asassssg151
(dp433
g78
(dp434
g46
(dp435
g61
(lp436
(dp437
g64
I1
sg65
(lp438
S'N-PROPN-GEN'
p439
ag15
aI7974
asa(dp440
g64
I1
sg65
(lp441
S'N-PROPN-GEN'
p442
ag17
aI7748
asasssssssg46
(dp443
g38
(dp444
g151
(dp445
g78
(dp446
g46
(dp447
g61
(lp448
(dp449
g64
I1
sg65
(lp450
S'N-PRON-GEN'
p451
ag17
aI8426
asa(dp452
g64
I1
sg65
(lp453
S'N-PRON-GEN'
p454
ag15
aI10203
asasssssssssg40
(dp455
g32
(dp456
g57
(dp457
g61
(lp458
(dp459
g64
I1
sg65
(lp460
S'N-SAC'
p461
ag15
aI4801
asa(dp462
g64
I1
sg65
(lp463
S'N-SAC'
p464
ag17
aI3281
asasssg340
(dp465
g38
(dp466
g32
(dp467
g158
(dp468
g46
(dp469
g61
(lp470
(dp471
g64
I1
sg65
(lp472
S'N-SF-ARN'
p473
ag15
aI7453
asasssg108
(dp474
g36
(dp475
g42
(dp476
g61
(lp477
(dp478
g64
I1
sg65
(lp479
S'N-SF-ADVP'
p480
ag15
aI8675
asasssssg57
(dp481
g40
(dp482
g34
(dp483
g340
(dp484
g61
(lp485
(dp486
g64
I1
sg65
(lp487
S'N-SF-CSUF'
p488
ag15
aI5868
asasssssg151
(dp489
g78
(dp490
g46
(dp491
g61
(lp492
(dp493
g64
I1
sg65
(lp494
S'N-SF-GEN'
p495
ag15
aI4975
asassssg46
(dp496
g32
(dp497
g32
(dp498
g108
(dp499
g187
(dp500
g40
(dp501
g54
(dp502
g78
(dp503
g409
(dp504
g61
(lp505
(dp506
g64
I1
sg65
(lp507
S'N-SF-NAADJSTEM'
p508
ag15
aI9260
asassssssssssg42
(dp509
g78
(dp510
g158
(dp511
g46
(dp512
g61
(lp513
(dp514
g64
I1
sg65
(lp515
S'N-SF-PERN'
p516
ag15
aI7453
asasssssg40
(dp517
g32
(dp518
g57
(dp519
g61
(lp520
(dp521
g64
I1
sg65
(lp522
S'N-SF-SAC'
p523
ag15
aI10260
asasssg42
(dp524
g61
(lp525
(dp526
g64
I1
sg65
(lp527
S'N-SF-SP'
p528
ag15
aI10260
asassssssg151
(dp529
g78
(dp530
g46
(dp531
g61
(lp532
(dp533
g64
I1
sg65
(lp534
S'N-GEN'
p535
ag17
aI2696
asa(dp536
g64
I1
sg65
(lp537
S'N-GEN'
p538
ag15
aI4209
asassssg46
(dp539
g15
(dp540
g38
(dp541
g32
(dp542
g108
(dp543
g36
(dp544
g42
(dp545
g61
(lp546
(dp547
g64
I1
sg65
(lp548
S'N-NI-ADVP'
p549
ag17
aI9269
asa(dp550
g64
I1
sg65
(lp551
S'N-NI-ADVP'
p552
ag15
aI9360
asasssssg151
(dp553
g78
(dp554
g46
(dp555
g61
(lp556
(dp557
g64
I1
sg65
(lp558
S'N-NI-GEN'
p559
ag15
aI7675
asassssssg32
(dp560
g15
(dp561
g61
(lp562
(dp563
g64
I1
sg65
(lp564
S'N-NAI'
p565
ag15
aI9260
asassg32
(dp566
g108
(dp567
g187
(dp568
g40
(dp569
g54
(dp570
g78
(dp571
g409
(dp572
g61
(lp573
(dp574
g64
I1
sg65
(lp575
S'N-NAADJSTEM'
p576
ag17
aI5868
asa(dp577
g64
I1
sg65
(lp578
S'N-NAADJSTEM'
p579
ag15
aI9060
asasssssssssg34
(dp580
g61
(lp581
(dp582
g64
I1
sg65
(lp583
S'N-NU'
p584
ag17
aI5132
asa(dp585
g64
I1
sg65
(lp586
S'N-NU'
p587
ag15
aI5551
asasssssg42
(dp588
g38
(dp589
g46
(dp590
g57
(dp591
g61
(lp592
(dp593
g64
I1
sg65
(lp594
S'P-NC'
p595
ag15
aI10160
asa(dp596
g64
I1
sg65
(lp597
S'P-NC'
p598
ag17
aI6299
asasssssg40
(dp599
g51
(dp600
g38
(dp601
g32
(dp602
g291
(dp603
g61
(lp604
(dp605
g64
I1
sg65
(lp606
S'SY-AL'
p607
ag15
aI7090
asa(dp608
g64
I1
sg65
(lp609
S'SY-AL'
p610
ag17
aI7784
asasssg57
(dp611
g9
(dp612
g409
(dp613
g61
(lp614
(dp615
g64
I1
sg65
(lp616
S'SY-COM'
p617
ag9
aI1736
asassssg17
(dp618
g158
(dp619
g32
(dp620
g61
(lp621
(dp622
g64
I1
sg65
(lp623
S'SY-BRA'
p624
ag9
aI7519
asa(dp625
g64
I1
sg65
(lp626
S'SY-BRA'
p627
ag17
aI5411
asa(dp628
g64
I1
sg65
(lp629
S'SY-BRA'
p630
ag15
aI7645
asassssg151
(dp631
g78
(dp632
g46
(dp633
g61
(lp634
(dp635
g64
I1
sg65
(lp636
S'SY-GEN'
p637
ag9
aI6871
asa(dp638
g64
I1
sg65
(lp639
S'SY-GEN'
p640
ag15
aI8423
asassssg304
(dp641
g78
(dp642
g54
(dp643
g61
(lp644
(dp645
g64
I1
sg65
(lp646
S'SY-KET'
p647
ag9
aI7519
asa(dp648
g64
I1
sg65
(lp649
S'SY-KET'
p650
ag15
aI5837
asassssg42
(dp651
g78
(dp652
g61
(lp653
(dp654
g64
I1
sg65
(lp655
S'SY-PE'
p656
ag9
aI2333
asasssg40
(dp657
g42
(dp658
g57
(dp659
g61
(lp660
(dp661
g64
I1
sg65
(lp662
S'SY-SPC'
p663
ag9
aI3918
asasssssssg54
(dp664
g61
(lp665
(dp666
g64
I1
sg65
(lp667
g54
ag17
aI7047
asassg36
(dp668
g38
(dp669
g15
(dp670
g38
(dp671
g15
(dp672
g57
(dp673
g298
(dp674
g15
(dp675
g108
(dp676
g32
(dp677
g46
(dp678
g38
(dp679
g51
(dp680
g61
(lp681
(dp682
g64
I1
sg65
(lp683
S'V-I-ICHIDAN-Y'
p684
ag17
aI5784
asassg17
(dp685
g61
(lp686
(dp687
g64
I1
sg65
(lp688
S'V-I-ICHIDAN-B'
p689
ag17
aI6784
asassg132
(dp690
g61
(lp691
(dp692
g64
I1
sg65
(lp693
S'V-I-ICHIDAN-Z'
p694
ag15
aI10260
asa(dp695
g64
I1
sg65
(lp696
S'V-I-ICHIDAN-Z'
p697
ag17
aI7784
asassssssssssg40
(dp698
g32
(dp699
g298
(dp700
g78
(dp701
g46
(dp702
g44
(dp703
g40
(dp704
g34
(dp705
g158
(dp706
g38
(dp707
g51
(dp708
g61
(lp709
(dp710
g64
I1
sg65
(lp711
S'V-I-SAHEN/SUR-Y'
p712
ag15
aI6016
asa(dp713
g64
I1
sg65
(lp714
S'V-I-SAHEN/SUR-Y'
p715
ag17
aI6969
asassg17
(dp716
g61
(lp717
(dp718
g64
I1
sg65
(lp719
S'V-I-SAHEN/SUR-B'
p720
ag15
aI6938
asassg158
(dp721
g78
(dp722
g158
(dp723
g34
(dp724
g57
(dp725
g9
(dp726
g46
(dp727
g61
(lp728
(dp729
g64
I1
sg65
(lp730
S'V-I-SAHEN/SUR-RERUCON'
p731
ag15
aI9260
asassssssssssssssssssg151
(dp732
g9
(dp733
g108
(dp734
g32
(dp735
g46
(dp736
g44
(dp737
g17
(dp738
g32
(dp739
g38
(dp740
g132
(dp741
g61
(lp742
(dp743
g64
I1
sg65
(lp744
S'V-I-GODAN/BA-Z'
p745
ag17
aI9369
asasssssg304
(dp746
g32
(dp747
g44
(dp748
g15
(dp749
g38
(dp750
g51
(dp751
g44
(dp752
g54
(dp753
g32
(dp754
g57
(dp755
g9
(dp756
g46
(dp757
g61
(lp758
(dp759
g64
I1
sg65
(lp760
S'V-I-GODAN/KA/I-Y/TACON'
p761
ag17
aI9369
asasssssssssssssg409
(dp762
g32
(dp763
g38
(dp764
g51
(dp765
g44
(dp766
g54
(dp767
g32
(dp768
g57
(dp769
g9
(dp770
g46
(dp771
g61
(lp772
(dp773
g64
I1
sg65
(lp774
S'V-I-GODAN/MA-Y/TACON'
p775
ag17
aI9369
asassssssssg132
(dp776
g61
(lp777
(dp778
g64
I1
sg65
(lp779
S'V-I-GODAN/MA-Z'
p780
ag17
aI9369
asassg17
(dp781
g61
(lp782
(dp783
g64
I1
sg65
(lp784
S'V-I-GODAN/MA-B'
p785
ag17
aI8369
asasssssg40
(dp786
g32
(dp787
g38
(dp788
g51
(dp789
g61
(lp790
(dp791
g64
I1
sg65
(lp792
S'V-I-GODAN/SA-Y'
p793
ag17
aI8369
asassg17
(dp794
g61
(lp795
(dp796
g64
I1
sg65
(lp797
S'V-I-GODAN/SA-B'
p798
ag17
aI7784
asassg132
(dp799
g61
(lp800
(dp801
g64
I1
sg65
(lp802
S'V-I-GODAN/SA-Z'
p803
ag17
aI9369
asasssssg158
(dp804
g32
(dp805
g38
(dp806
g51
(dp807
g44
(dp808
g54
(dp809
g32
(dp810
g57
(dp811
g9
(dp812
g46
(dp813
g61
(lp814
(dp815
g64
I1
sg65
(lp816
S'V-I-GODAN/RA-Y/TACON'
p817
ag17
aI6369
asasssssssg61
(lp818
(dp819
g64
I1
sg65
(lp820
S'V-I-GODAN/RA-Y'
p821
ag17
aI7047
asassg17
(dp822
g61
(lp823
(dp824
g64
I1
sg65
(lp825
S'V-I-GODAN/RA-B'
p826
ag15
aI7937
asa(dp827
g64
I1
sg65
(lp828
S'V-I-GODAN/RA-B'
p829
ag17
aI7522
asassg132
(dp830
g61
(lp831
(dp832
g64
I1
sg65
(lp833
S'V-I-GODAN/RA-Z'
p834
ag17
aI8369
asasssssg54
(dp835
g32
(dp836
g38
(dp837
g132
(dp838
g61
(lp839
(dp840
g64
I1
sg65
(lp841
S'V-I-GODAN/TA-Z'
p842
ag17
aI9369
asasssssS'W'
p843
(dp844
g32
(dp845
g44
(dp846
g40
(dp847
g9
(dp848
g304
(dp849
g38
(dp850
g51
(dp851
g44
(dp852
g54
(dp853
g32
(dp854
g57
(dp855
g9
(dp856
g46
(dp857
g61
(lp858
(dp859
g64
I1
sg65
(lp860
S'V-I-GODAN/WA/SOK-Y/TACON'
p861
ag17
aI8369
asasssssssg61
(lp862
(dp863
g64
I1
sg65
(lp864
S'V-I-GODAN/WA/SOK-Y'
p865
ag17
aI7369
asassg17
(dp866
g61
(lp867
(dp868
g64
I1
sg65
(lp869
S'V-I-GODAN/WA/SOK-B'
p870
ag17
aI8169
asa(dp871
g64
I1
sg65
(lp872
S'V-I-GODAN/WA/SOK-B'
p873
ag15
aI8875
asassg132
(dp874
g61
(lp875
(dp876
g64
I1
sg65
(lp877
S'V-I-GODAN/WA/SOK-Z'
p878
ag17
aI8369
asasssssssssssssssssg40
(dp879
g340
(dp880
g38
(dp881
g15
(dp882
g57
(dp883
g298
(dp884
g15
(dp885
g108
(dp886
g32
(dp887
g46
(dp888
g38
(dp889
g51
(dp890
g61
(lp891
(dp892
g64
I1
sg65
(lp893
S'V-SF-ICHIDAN-Y'
p894
ag15
aI7938
asassg17
(dp895
g61
(lp896
(dp897
g64
I1
sg65
(lp898
S'V-SF-ICHIDAN-B'
p899
ag15
aI9260
asassssssssssg151
(dp900
g9
(dp901
g108
(dp902
g32
(dp903
g46
(dp904
g44
(dp905
g158
(dp906
g32
(dp907
g38
(dp908
g17
(dp909
g61
(lp910
(dp911
g64
I1
sg65
(lp912
S'V-SF-GODAN/RA-B'
p913
ag15
aI10260
asassssssssssssssg46
(dp914
g15
(dp915
g38
(dp916
g15
(dp917
g57
(dp918
g298
(dp919
g15
(dp920
g108
(dp921
g32
(dp922
g46
(dp923
g38
(dp924
g51
(dp925
g61
(lp926
(dp927
g64
I1
sg65
(lp928
S'V-NI-ICHIDAN-Y'
p929
ag15
aI7090
asassg17
(dp930
g61
(lp931
(dp932
g64
I1
sg65
(lp933
S'V-NI-ICHIDAN-B'
p934
ag15
aI6560
asassssssssssg304
(dp935
g32
(dp936
g298
(dp937
g78
(dp938
g46
(dp939
g44
(dp940
g304
(dp941
g34
(dp942
g158
(dp943
g38
(dp944
g51
(dp945
g61
(lp946
(dp947
g64
I1
sg65
(lp948
S'V-NI-KAHEN/KUR-Y'
p949
ag15
aI10260
asassssssssssssg151
(dp950
g9
(dp951
g108
(dp952
g32
(dp953
g46
(dp954
g44
(dp955
g158
(dp956
g32
(dp957
g38
(dp958
g17
(dp959
g61
(lp960
(dp961
g64
I1
sg65
(lp962
S'V-NI-GODAN/RA-B'
p963
ag15
aI10260
asasssssg843
(dp964
g32
(dp965
g44
(dp966
g40
(dp967
g9
(dp968
g304
(dp969
g38
(dp970
g51
(dp971
g61
(lp972
(dp973
g64
I1
sg65
(lp974
S'V-NI-GODAN/WA/SOK-Y'
p975
ag15
aI10260
asassg17
(dp976
g61
(lp977
(dp978
g64
I1
sg65
(lp979
S'V-NI-GODAN/WA/SOK-B'
p980
ag15
aI10260
asasssssssssssssssssssssbsbsS'_Chunker__bos_clause'
p981
g279
sb.